ARM GAS  /var/folders/f7/sjskzmt15v119_37bs_xt4r00000gn/T//cc3cAasR.s 			page 1


   1              		.cpu cortex-m7
   2              		.arch armv7e-m
   3              		.fpu fpv5-d16
   4              		.eabi_attribute 28, 1
   5              		.eabi_attribute 20, 1
   6              		.eabi_attribute 21, 1
   7              		.eabi_attribute 23, 3
   8              		.eabi_attribute 24, 1
   9              		.eabi_attribute 25, 1
  10              		.eabi_attribute 26, 1
  11              		.eabi_attribute 30, 6
  12              		.eabi_attribute 34, 1
  13              		.eabi_attribute 18, 4
  14              		.file	"main.cpp"
  15              		.text
  16              	.Ltext0:
  17              		.cfi_sections	.debug_frame
  18              		.file 1 "main.cpp"
  19              		.section	.text._ZSt3cosf,"axG",%progbits,_ZSt3cosf,comdat
  20              		.align	1
  21              		.weak	_ZSt3cosf
  22              		.syntax unified
  23              		.thumb
  24              		.thumb_func
  26              	_ZSt3cosf:
  27              	.LFB159:
  28              		.file 2 "/Applications/ArmGNUToolchain/13.2.Rel1/arm-none-eabi/arm-none-eabi/include/c++/13.2.1/cm
   1:/Applications/ArmGNUToolchain/13.2.Rel1/arm-none-eabi/arm-none-eabi/include/c++/13.2.1/cmath **** // -*- C++ -*- C forwarding header.
   2:/Applications/ArmGNUToolchain/13.2.Rel1/arm-none-eabi/arm-none-eabi/include/c++/13.2.1/cmath **** 
   3:/Applications/ArmGNUToolchain/13.2.Rel1/arm-none-eabi/arm-none-eabi/include/c++/13.2.1/cmath **** // Copyright (C) 1997-2023 Free Software Foundation, Inc.
   4:/Applications/ArmGNUToolchain/13.2.Rel1/arm-none-eabi/arm-none-eabi/include/c++/13.2.1/cmath **** //
   5:/Applications/ArmGNUToolchain/13.2.Rel1/arm-none-eabi/arm-none-eabi/include/c++/13.2.1/cmath **** // This file is part of the GNU ISO C++ Library.  This library is free
   6:/Applications/ArmGNUToolchain/13.2.Rel1/arm-none-eabi/arm-none-eabi/include/c++/13.2.1/cmath **** // software; you can redistribute it and/or modify it under the
   7:/Applications/ArmGNUToolchain/13.2.Rel1/arm-none-eabi/arm-none-eabi/include/c++/13.2.1/cmath **** // terms of the GNU General Public License as published by the
   8:/Applications/ArmGNUToolchain/13.2.Rel1/arm-none-eabi/arm-none-eabi/include/c++/13.2.1/cmath **** // Free Software Foundation; either version 3, or (at your option)
   9:/Applications/ArmGNUToolchain/13.2.Rel1/arm-none-eabi/arm-none-eabi/include/c++/13.2.1/cmath **** // any later version.
  10:/Applications/ArmGNUToolchain/13.2.Rel1/arm-none-eabi/arm-none-eabi/include/c++/13.2.1/cmath **** 
  11:/Applications/ArmGNUToolchain/13.2.Rel1/arm-none-eabi/arm-none-eabi/include/c++/13.2.1/cmath **** // This library is distributed in the hope that it will be useful,
  12:/Applications/ArmGNUToolchain/13.2.Rel1/arm-none-eabi/arm-none-eabi/include/c++/13.2.1/cmath **** // but WITHOUT ANY WARRANTY; without even the implied warranty of
  13:/Applications/ArmGNUToolchain/13.2.Rel1/arm-none-eabi/arm-none-eabi/include/c++/13.2.1/cmath **** // MERCHANTABILITY or FITNESS FOR A PARTICULAR PURPOSE.  See the
  14:/Applications/ArmGNUToolchain/13.2.Rel1/arm-none-eabi/arm-none-eabi/include/c++/13.2.1/cmath **** // GNU General Public License for more details.
  15:/Applications/ArmGNUToolchain/13.2.Rel1/arm-none-eabi/arm-none-eabi/include/c++/13.2.1/cmath **** 
  16:/Applications/ArmGNUToolchain/13.2.Rel1/arm-none-eabi/arm-none-eabi/include/c++/13.2.1/cmath **** // Under Section 7 of GPL version 3, you are granted additional
  17:/Applications/ArmGNUToolchain/13.2.Rel1/arm-none-eabi/arm-none-eabi/include/c++/13.2.1/cmath **** // permissions described in the GCC Runtime Library Exception, version
  18:/Applications/ArmGNUToolchain/13.2.Rel1/arm-none-eabi/arm-none-eabi/include/c++/13.2.1/cmath **** // 3.1, as published by the Free Software Foundation.
  19:/Applications/ArmGNUToolchain/13.2.Rel1/arm-none-eabi/arm-none-eabi/include/c++/13.2.1/cmath **** 
  20:/Applications/ArmGNUToolchain/13.2.Rel1/arm-none-eabi/arm-none-eabi/include/c++/13.2.1/cmath **** // You should have received a copy of the GNU General Public License and
  21:/Applications/ArmGNUToolchain/13.2.Rel1/arm-none-eabi/arm-none-eabi/include/c++/13.2.1/cmath **** // a copy of the GCC Runtime Library Exception along with this program;
  22:/Applications/ArmGNUToolchain/13.2.Rel1/arm-none-eabi/arm-none-eabi/include/c++/13.2.1/cmath **** // see the files COPYING3 and COPYING.RUNTIME respectively.  If not, see
  23:/Applications/ArmGNUToolchain/13.2.Rel1/arm-none-eabi/arm-none-eabi/include/c++/13.2.1/cmath **** // <http://www.gnu.org/licenses/>.
  24:/Applications/ArmGNUToolchain/13.2.Rel1/arm-none-eabi/arm-none-eabi/include/c++/13.2.1/cmath **** 
  25:/Applications/ArmGNUToolchain/13.2.Rel1/arm-none-eabi/arm-none-eabi/include/c++/13.2.1/cmath **** /** @file include/cmath
  26:/Applications/ArmGNUToolchain/13.2.Rel1/arm-none-eabi/arm-none-eabi/include/c++/13.2.1/cmath ****  *  This is a Standard C++ Library file.  You should @c \#include this file
  27:/Applications/ArmGNUToolchain/13.2.Rel1/arm-none-eabi/arm-none-eabi/include/c++/13.2.1/cmath ****  *  in your programs, rather than any of the @a *.h implementation files.
  28:/Applications/ArmGNUToolchain/13.2.Rel1/arm-none-eabi/arm-none-eabi/include/c++/13.2.1/cmath ****  *
  29:/Applications/ArmGNUToolchain/13.2.Rel1/arm-none-eabi/arm-none-eabi/include/c++/13.2.1/cmath ****  *  This is the C++ version of the Standard C Library header @c math.h,
  30:/Applications/ArmGNUToolchain/13.2.Rel1/arm-none-eabi/arm-none-eabi/include/c++/13.2.1/cmath ****  *  and its contents are (mostly) the same as that header, but are all
ARM GAS  /var/folders/f7/sjskzmt15v119_37bs_xt4r00000gn/T//cc3cAasR.s 			page 2


  31:/Applications/ArmGNUToolchain/13.2.Rel1/arm-none-eabi/arm-none-eabi/include/c++/13.2.1/cmath ****  *  contained in the namespace @c std (except for names which are defined
  32:/Applications/ArmGNUToolchain/13.2.Rel1/arm-none-eabi/arm-none-eabi/include/c++/13.2.1/cmath ****  *  as macros in C).
  33:/Applications/ArmGNUToolchain/13.2.Rel1/arm-none-eabi/arm-none-eabi/include/c++/13.2.1/cmath ****  */
  34:/Applications/ArmGNUToolchain/13.2.Rel1/arm-none-eabi/arm-none-eabi/include/c++/13.2.1/cmath **** 
  35:/Applications/ArmGNUToolchain/13.2.Rel1/arm-none-eabi/arm-none-eabi/include/c++/13.2.1/cmath **** //
  36:/Applications/ArmGNUToolchain/13.2.Rel1/arm-none-eabi/arm-none-eabi/include/c++/13.2.1/cmath **** // ISO C++ 14882: 26.5  C library
  37:/Applications/ArmGNUToolchain/13.2.Rel1/arm-none-eabi/arm-none-eabi/include/c++/13.2.1/cmath **** //
  38:/Applications/ArmGNUToolchain/13.2.Rel1/arm-none-eabi/arm-none-eabi/include/c++/13.2.1/cmath **** 
  39:/Applications/ArmGNUToolchain/13.2.Rel1/arm-none-eabi/arm-none-eabi/include/c++/13.2.1/cmath **** #pragma GCC system_header
  40:/Applications/ArmGNUToolchain/13.2.Rel1/arm-none-eabi/arm-none-eabi/include/c++/13.2.1/cmath **** 
  41:/Applications/ArmGNUToolchain/13.2.Rel1/arm-none-eabi/arm-none-eabi/include/c++/13.2.1/cmath **** #include <bits/requires_hosted.h>
  42:/Applications/ArmGNUToolchain/13.2.Rel1/arm-none-eabi/arm-none-eabi/include/c++/13.2.1/cmath **** 
  43:/Applications/ArmGNUToolchain/13.2.Rel1/arm-none-eabi/arm-none-eabi/include/c++/13.2.1/cmath **** #include <bits/c++config.h>
  44:/Applications/ArmGNUToolchain/13.2.Rel1/arm-none-eabi/arm-none-eabi/include/c++/13.2.1/cmath **** #include <bits/cpp_type_traits.h>
  45:/Applications/ArmGNUToolchain/13.2.Rel1/arm-none-eabi/arm-none-eabi/include/c++/13.2.1/cmath **** #include <ext/type_traits.h>
  46:/Applications/ArmGNUToolchain/13.2.Rel1/arm-none-eabi/arm-none-eabi/include/c++/13.2.1/cmath **** #define _GLIBCXX_INCLUDE_NEXT_C_HEADERS
  47:/Applications/ArmGNUToolchain/13.2.Rel1/arm-none-eabi/arm-none-eabi/include/c++/13.2.1/cmath **** #include_next <math.h>
  48:/Applications/ArmGNUToolchain/13.2.Rel1/arm-none-eabi/arm-none-eabi/include/c++/13.2.1/cmath **** #undef _GLIBCXX_INCLUDE_NEXT_C_HEADERS
  49:/Applications/ArmGNUToolchain/13.2.Rel1/arm-none-eabi/arm-none-eabi/include/c++/13.2.1/cmath **** #include <bits/std_abs.h>
  50:/Applications/ArmGNUToolchain/13.2.Rel1/arm-none-eabi/arm-none-eabi/include/c++/13.2.1/cmath **** 
  51:/Applications/ArmGNUToolchain/13.2.Rel1/arm-none-eabi/arm-none-eabi/include/c++/13.2.1/cmath **** #ifndef _GLIBCXX_CMATH
  52:/Applications/ArmGNUToolchain/13.2.Rel1/arm-none-eabi/arm-none-eabi/include/c++/13.2.1/cmath **** #define _GLIBCXX_CMATH 1
  53:/Applications/ArmGNUToolchain/13.2.Rel1/arm-none-eabi/arm-none-eabi/include/c++/13.2.1/cmath **** 
  54:/Applications/ArmGNUToolchain/13.2.Rel1/arm-none-eabi/arm-none-eabi/include/c++/13.2.1/cmath **** // Get rid of those macros defined in <math.h> in lieu of real functions.
  55:/Applications/ArmGNUToolchain/13.2.Rel1/arm-none-eabi/arm-none-eabi/include/c++/13.2.1/cmath **** #undef div
  56:/Applications/ArmGNUToolchain/13.2.Rel1/arm-none-eabi/arm-none-eabi/include/c++/13.2.1/cmath **** #undef acos
  57:/Applications/ArmGNUToolchain/13.2.Rel1/arm-none-eabi/arm-none-eabi/include/c++/13.2.1/cmath **** #undef asin
  58:/Applications/ArmGNUToolchain/13.2.Rel1/arm-none-eabi/arm-none-eabi/include/c++/13.2.1/cmath **** #undef atan
  59:/Applications/ArmGNUToolchain/13.2.Rel1/arm-none-eabi/arm-none-eabi/include/c++/13.2.1/cmath **** #undef atan2
  60:/Applications/ArmGNUToolchain/13.2.Rel1/arm-none-eabi/arm-none-eabi/include/c++/13.2.1/cmath **** #undef ceil
  61:/Applications/ArmGNUToolchain/13.2.Rel1/arm-none-eabi/arm-none-eabi/include/c++/13.2.1/cmath **** #undef cos
  62:/Applications/ArmGNUToolchain/13.2.Rel1/arm-none-eabi/arm-none-eabi/include/c++/13.2.1/cmath **** #undef cosh
  63:/Applications/ArmGNUToolchain/13.2.Rel1/arm-none-eabi/arm-none-eabi/include/c++/13.2.1/cmath **** #undef exp
  64:/Applications/ArmGNUToolchain/13.2.Rel1/arm-none-eabi/arm-none-eabi/include/c++/13.2.1/cmath **** #undef fabs
  65:/Applications/ArmGNUToolchain/13.2.Rel1/arm-none-eabi/arm-none-eabi/include/c++/13.2.1/cmath **** #undef floor
  66:/Applications/ArmGNUToolchain/13.2.Rel1/arm-none-eabi/arm-none-eabi/include/c++/13.2.1/cmath **** #undef fmod
  67:/Applications/ArmGNUToolchain/13.2.Rel1/arm-none-eabi/arm-none-eabi/include/c++/13.2.1/cmath **** #undef frexp
  68:/Applications/ArmGNUToolchain/13.2.Rel1/arm-none-eabi/arm-none-eabi/include/c++/13.2.1/cmath **** #undef ldexp
  69:/Applications/ArmGNUToolchain/13.2.Rel1/arm-none-eabi/arm-none-eabi/include/c++/13.2.1/cmath **** #undef log
  70:/Applications/ArmGNUToolchain/13.2.Rel1/arm-none-eabi/arm-none-eabi/include/c++/13.2.1/cmath **** #undef log10
  71:/Applications/ArmGNUToolchain/13.2.Rel1/arm-none-eabi/arm-none-eabi/include/c++/13.2.1/cmath **** #undef modf
  72:/Applications/ArmGNUToolchain/13.2.Rel1/arm-none-eabi/arm-none-eabi/include/c++/13.2.1/cmath **** #undef pow
  73:/Applications/ArmGNUToolchain/13.2.Rel1/arm-none-eabi/arm-none-eabi/include/c++/13.2.1/cmath **** #undef sin
  74:/Applications/ArmGNUToolchain/13.2.Rel1/arm-none-eabi/arm-none-eabi/include/c++/13.2.1/cmath **** #undef sinh
  75:/Applications/ArmGNUToolchain/13.2.Rel1/arm-none-eabi/arm-none-eabi/include/c++/13.2.1/cmath **** #undef sqrt
  76:/Applications/ArmGNUToolchain/13.2.Rel1/arm-none-eabi/arm-none-eabi/include/c++/13.2.1/cmath **** #undef tan
  77:/Applications/ArmGNUToolchain/13.2.Rel1/arm-none-eabi/arm-none-eabi/include/c++/13.2.1/cmath **** #undef tanh
  78:/Applications/ArmGNUToolchain/13.2.Rel1/arm-none-eabi/arm-none-eabi/include/c++/13.2.1/cmath **** 
  79:/Applications/ArmGNUToolchain/13.2.Rel1/arm-none-eabi/arm-none-eabi/include/c++/13.2.1/cmath **** extern "C++"
  80:/Applications/ArmGNUToolchain/13.2.Rel1/arm-none-eabi/arm-none-eabi/include/c++/13.2.1/cmath **** {
  81:/Applications/ArmGNUToolchain/13.2.Rel1/arm-none-eabi/arm-none-eabi/include/c++/13.2.1/cmath **** namespace std _GLIBCXX_VISIBILITY(default)
  82:/Applications/ArmGNUToolchain/13.2.Rel1/arm-none-eabi/arm-none-eabi/include/c++/13.2.1/cmath **** {
  83:/Applications/ArmGNUToolchain/13.2.Rel1/arm-none-eabi/arm-none-eabi/include/c++/13.2.1/cmath **** _GLIBCXX_BEGIN_NAMESPACE_VERSION
  84:/Applications/ArmGNUToolchain/13.2.Rel1/arm-none-eabi/arm-none-eabi/include/c++/13.2.1/cmath **** 
  85:/Applications/ArmGNUToolchain/13.2.Rel1/arm-none-eabi/arm-none-eabi/include/c++/13.2.1/cmath ****   using ::acos;
  86:/Applications/ArmGNUToolchain/13.2.Rel1/arm-none-eabi/arm-none-eabi/include/c++/13.2.1/cmath **** 
  87:/Applications/ArmGNUToolchain/13.2.Rel1/arm-none-eabi/arm-none-eabi/include/c++/13.2.1/cmath **** #ifndef __CORRECT_ISO_CPP_MATH_H_PROTO
ARM GAS  /var/folders/f7/sjskzmt15v119_37bs_xt4r00000gn/T//cc3cAasR.s 			page 3


  88:/Applications/ArmGNUToolchain/13.2.Rel1/arm-none-eabi/arm-none-eabi/include/c++/13.2.1/cmath ****   inline _GLIBCXX_CONSTEXPR float
  89:/Applications/ArmGNUToolchain/13.2.Rel1/arm-none-eabi/arm-none-eabi/include/c++/13.2.1/cmath ****   acos(float __x)
  90:/Applications/ArmGNUToolchain/13.2.Rel1/arm-none-eabi/arm-none-eabi/include/c++/13.2.1/cmath ****   { return __builtin_acosf(__x); }
  91:/Applications/ArmGNUToolchain/13.2.Rel1/arm-none-eabi/arm-none-eabi/include/c++/13.2.1/cmath **** 
  92:/Applications/ArmGNUToolchain/13.2.Rel1/arm-none-eabi/arm-none-eabi/include/c++/13.2.1/cmath ****   inline _GLIBCXX_CONSTEXPR long double
  93:/Applications/ArmGNUToolchain/13.2.Rel1/arm-none-eabi/arm-none-eabi/include/c++/13.2.1/cmath ****   acos(long double __x)
  94:/Applications/ArmGNUToolchain/13.2.Rel1/arm-none-eabi/arm-none-eabi/include/c++/13.2.1/cmath ****   { return __builtin_acosl(__x); }
  95:/Applications/ArmGNUToolchain/13.2.Rel1/arm-none-eabi/arm-none-eabi/include/c++/13.2.1/cmath **** #endif
  96:/Applications/ArmGNUToolchain/13.2.Rel1/arm-none-eabi/arm-none-eabi/include/c++/13.2.1/cmath **** 
  97:/Applications/ArmGNUToolchain/13.2.Rel1/arm-none-eabi/arm-none-eabi/include/c++/13.2.1/cmath ****   template<typename _Tp>
  98:/Applications/ArmGNUToolchain/13.2.Rel1/arm-none-eabi/arm-none-eabi/include/c++/13.2.1/cmath ****     inline _GLIBCXX_CONSTEXPR
  99:/Applications/ArmGNUToolchain/13.2.Rel1/arm-none-eabi/arm-none-eabi/include/c++/13.2.1/cmath ****     typename __gnu_cxx::__enable_if<__is_integer<_Tp>::__value, 
 100:/Applications/ArmGNUToolchain/13.2.Rel1/arm-none-eabi/arm-none-eabi/include/c++/13.2.1/cmath ****                                     double>::__type
 101:/Applications/ArmGNUToolchain/13.2.Rel1/arm-none-eabi/arm-none-eabi/include/c++/13.2.1/cmath ****     acos(_Tp __x)
 102:/Applications/ArmGNUToolchain/13.2.Rel1/arm-none-eabi/arm-none-eabi/include/c++/13.2.1/cmath ****     { return __builtin_acos(__x); }
 103:/Applications/ArmGNUToolchain/13.2.Rel1/arm-none-eabi/arm-none-eabi/include/c++/13.2.1/cmath **** 
 104:/Applications/ArmGNUToolchain/13.2.Rel1/arm-none-eabi/arm-none-eabi/include/c++/13.2.1/cmath ****   using ::asin;
 105:/Applications/ArmGNUToolchain/13.2.Rel1/arm-none-eabi/arm-none-eabi/include/c++/13.2.1/cmath **** 
 106:/Applications/ArmGNUToolchain/13.2.Rel1/arm-none-eabi/arm-none-eabi/include/c++/13.2.1/cmath **** #ifndef __CORRECT_ISO_CPP_MATH_H_PROTO
 107:/Applications/ArmGNUToolchain/13.2.Rel1/arm-none-eabi/arm-none-eabi/include/c++/13.2.1/cmath ****   inline _GLIBCXX_CONSTEXPR float
 108:/Applications/ArmGNUToolchain/13.2.Rel1/arm-none-eabi/arm-none-eabi/include/c++/13.2.1/cmath ****   asin(float __x)
 109:/Applications/ArmGNUToolchain/13.2.Rel1/arm-none-eabi/arm-none-eabi/include/c++/13.2.1/cmath ****   { return __builtin_asinf(__x); }
 110:/Applications/ArmGNUToolchain/13.2.Rel1/arm-none-eabi/arm-none-eabi/include/c++/13.2.1/cmath **** 
 111:/Applications/ArmGNUToolchain/13.2.Rel1/arm-none-eabi/arm-none-eabi/include/c++/13.2.1/cmath ****   inline _GLIBCXX_CONSTEXPR long double
 112:/Applications/ArmGNUToolchain/13.2.Rel1/arm-none-eabi/arm-none-eabi/include/c++/13.2.1/cmath ****   asin(long double __x)
 113:/Applications/ArmGNUToolchain/13.2.Rel1/arm-none-eabi/arm-none-eabi/include/c++/13.2.1/cmath ****   { return __builtin_asinl(__x); }
 114:/Applications/ArmGNUToolchain/13.2.Rel1/arm-none-eabi/arm-none-eabi/include/c++/13.2.1/cmath **** #endif
 115:/Applications/ArmGNUToolchain/13.2.Rel1/arm-none-eabi/arm-none-eabi/include/c++/13.2.1/cmath **** 
 116:/Applications/ArmGNUToolchain/13.2.Rel1/arm-none-eabi/arm-none-eabi/include/c++/13.2.1/cmath ****   template<typename _Tp>
 117:/Applications/ArmGNUToolchain/13.2.Rel1/arm-none-eabi/arm-none-eabi/include/c++/13.2.1/cmath ****     inline _GLIBCXX_CONSTEXPR
 118:/Applications/ArmGNUToolchain/13.2.Rel1/arm-none-eabi/arm-none-eabi/include/c++/13.2.1/cmath ****     typename __gnu_cxx::__enable_if<__is_integer<_Tp>::__value,
 119:/Applications/ArmGNUToolchain/13.2.Rel1/arm-none-eabi/arm-none-eabi/include/c++/13.2.1/cmath ****                                     double>::__type
 120:/Applications/ArmGNUToolchain/13.2.Rel1/arm-none-eabi/arm-none-eabi/include/c++/13.2.1/cmath ****     asin(_Tp __x)
 121:/Applications/ArmGNUToolchain/13.2.Rel1/arm-none-eabi/arm-none-eabi/include/c++/13.2.1/cmath ****     { return __builtin_asin(__x); }
 122:/Applications/ArmGNUToolchain/13.2.Rel1/arm-none-eabi/arm-none-eabi/include/c++/13.2.1/cmath **** 
 123:/Applications/ArmGNUToolchain/13.2.Rel1/arm-none-eabi/arm-none-eabi/include/c++/13.2.1/cmath ****   using ::atan;
 124:/Applications/ArmGNUToolchain/13.2.Rel1/arm-none-eabi/arm-none-eabi/include/c++/13.2.1/cmath **** 
 125:/Applications/ArmGNUToolchain/13.2.Rel1/arm-none-eabi/arm-none-eabi/include/c++/13.2.1/cmath **** #ifndef __CORRECT_ISO_CPP_MATH_H_PROTO
 126:/Applications/ArmGNUToolchain/13.2.Rel1/arm-none-eabi/arm-none-eabi/include/c++/13.2.1/cmath ****   inline _GLIBCXX_CONSTEXPR float
 127:/Applications/ArmGNUToolchain/13.2.Rel1/arm-none-eabi/arm-none-eabi/include/c++/13.2.1/cmath ****   atan(float __x)
 128:/Applications/ArmGNUToolchain/13.2.Rel1/arm-none-eabi/arm-none-eabi/include/c++/13.2.1/cmath ****   { return __builtin_atanf(__x); }
 129:/Applications/ArmGNUToolchain/13.2.Rel1/arm-none-eabi/arm-none-eabi/include/c++/13.2.1/cmath **** 
 130:/Applications/ArmGNUToolchain/13.2.Rel1/arm-none-eabi/arm-none-eabi/include/c++/13.2.1/cmath ****   inline _GLIBCXX_CONSTEXPR long double
 131:/Applications/ArmGNUToolchain/13.2.Rel1/arm-none-eabi/arm-none-eabi/include/c++/13.2.1/cmath ****   atan(long double __x)
 132:/Applications/ArmGNUToolchain/13.2.Rel1/arm-none-eabi/arm-none-eabi/include/c++/13.2.1/cmath ****   { return __builtin_atanl(__x); }
 133:/Applications/ArmGNUToolchain/13.2.Rel1/arm-none-eabi/arm-none-eabi/include/c++/13.2.1/cmath **** #endif
 134:/Applications/ArmGNUToolchain/13.2.Rel1/arm-none-eabi/arm-none-eabi/include/c++/13.2.1/cmath **** 
 135:/Applications/ArmGNUToolchain/13.2.Rel1/arm-none-eabi/arm-none-eabi/include/c++/13.2.1/cmath ****   template<typename _Tp>
 136:/Applications/ArmGNUToolchain/13.2.Rel1/arm-none-eabi/arm-none-eabi/include/c++/13.2.1/cmath ****     inline _GLIBCXX_CONSTEXPR
 137:/Applications/ArmGNUToolchain/13.2.Rel1/arm-none-eabi/arm-none-eabi/include/c++/13.2.1/cmath ****     typename __gnu_cxx::__enable_if<__is_integer<_Tp>::__value,
 138:/Applications/ArmGNUToolchain/13.2.Rel1/arm-none-eabi/arm-none-eabi/include/c++/13.2.1/cmath ****                                     double>::__type
 139:/Applications/ArmGNUToolchain/13.2.Rel1/arm-none-eabi/arm-none-eabi/include/c++/13.2.1/cmath ****     atan(_Tp __x)
 140:/Applications/ArmGNUToolchain/13.2.Rel1/arm-none-eabi/arm-none-eabi/include/c++/13.2.1/cmath ****     { return __builtin_atan(__x); }
 141:/Applications/ArmGNUToolchain/13.2.Rel1/arm-none-eabi/arm-none-eabi/include/c++/13.2.1/cmath **** 
 142:/Applications/ArmGNUToolchain/13.2.Rel1/arm-none-eabi/arm-none-eabi/include/c++/13.2.1/cmath ****   using ::atan2;
 143:/Applications/ArmGNUToolchain/13.2.Rel1/arm-none-eabi/arm-none-eabi/include/c++/13.2.1/cmath **** 
 144:/Applications/ArmGNUToolchain/13.2.Rel1/arm-none-eabi/arm-none-eabi/include/c++/13.2.1/cmath **** #ifndef __CORRECT_ISO_CPP_MATH_H_PROTO
ARM GAS  /var/folders/f7/sjskzmt15v119_37bs_xt4r00000gn/T//cc3cAasR.s 			page 4


 145:/Applications/ArmGNUToolchain/13.2.Rel1/arm-none-eabi/arm-none-eabi/include/c++/13.2.1/cmath ****   inline _GLIBCXX_CONSTEXPR float
 146:/Applications/ArmGNUToolchain/13.2.Rel1/arm-none-eabi/arm-none-eabi/include/c++/13.2.1/cmath ****   atan2(float __y, float __x)
 147:/Applications/ArmGNUToolchain/13.2.Rel1/arm-none-eabi/arm-none-eabi/include/c++/13.2.1/cmath ****   { return __builtin_atan2f(__y, __x); }
 148:/Applications/ArmGNUToolchain/13.2.Rel1/arm-none-eabi/arm-none-eabi/include/c++/13.2.1/cmath **** 
 149:/Applications/ArmGNUToolchain/13.2.Rel1/arm-none-eabi/arm-none-eabi/include/c++/13.2.1/cmath ****   inline _GLIBCXX_CONSTEXPR long double
 150:/Applications/ArmGNUToolchain/13.2.Rel1/arm-none-eabi/arm-none-eabi/include/c++/13.2.1/cmath ****   atan2(long double __y, long double __x)
 151:/Applications/ArmGNUToolchain/13.2.Rel1/arm-none-eabi/arm-none-eabi/include/c++/13.2.1/cmath ****   { return __builtin_atan2l(__y, __x); }
 152:/Applications/ArmGNUToolchain/13.2.Rel1/arm-none-eabi/arm-none-eabi/include/c++/13.2.1/cmath **** #endif
 153:/Applications/ArmGNUToolchain/13.2.Rel1/arm-none-eabi/arm-none-eabi/include/c++/13.2.1/cmath **** 
 154:/Applications/ArmGNUToolchain/13.2.Rel1/arm-none-eabi/arm-none-eabi/include/c++/13.2.1/cmath ****   using ::ceil;
 155:/Applications/ArmGNUToolchain/13.2.Rel1/arm-none-eabi/arm-none-eabi/include/c++/13.2.1/cmath **** 
 156:/Applications/ArmGNUToolchain/13.2.Rel1/arm-none-eabi/arm-none-eabi/include/c++/13.2.1/cmath **** #ifndef __CORRECT_ISO_CPP_MATH_H_PROTO
 157:/Applications/ArmGNUToolchain/13.2.Rel1/arm-none-eabi/arm-none-eabi/include/c++/13.2.1/cmath ****   inline _GLIBCXX_CONSTEXPR float
 158:/Applications/ArmGNUToolchain/13.2.Rel1/arm-none-eabi/arm-none-eabi/include/c++/13.2.1/cmath ****   ceil(float __x)
 159:/Applications/ArmGNUToolchain/13.2.Rel1/arm-none-eabi/arm-none-eabi/include/c++/13.2.1/cmath ****   { return __builtin_ceilf(__x); }
 160:/Applications/ArmGNUToolchain/13.2.Rel1/arm-none-eabi/arm-none-eabi/include/c++/13.2.1/cmath **** 
 161:/Applications/ArmGNUToolchain/13.2.Rel1/arm-none-eabi/arm-none-eabi/include/c++/13.2.1/cmath ****   inline _GLIBCXX_CONSTEXPR long double
 162:/Applications/ArmGNUToolchain/13.2.Rel1/arm-none-eabi/arm-none-eabi/include/c++/13.2.1/cmath ****   ceil(long double __x)
 163:/Applications/ArmGNUToolchain/13.2.Rel1/arm-none-eabi/arm-none-eabi/include/c++/13.2.1/cmath ****   { return __builtin_ceill(__x); }
 164:/Applications/ArmGNUToolchain/13.2.Rel1/arm-none-eabi/arm-none-eabi/include/c++/13.2.1/cmath **** #endif
 165:/Applications/ArmGNUToolchain/13.2.Rel1/arm-none-eabi/arm-none-eabi/include/c++/13.2.1/cmath **** 
 166:/Applications/ArmGNUToolchain/13.2.Rel1/arm-none-eabi/arm-none-eabi/include/c++/13.2.1/cmath ****   template<typename _Tp>
 167:/Applications/ArmGNUToolchain/13.2.Rel1/arm-none-eabi/arm-none-eabi/include/c++/13.2.1/cmath ****     inline _GLIBCXX_CONSTEXPR
 168:/Applications/ArmGNUToolchain/13.2.Rel1/arm-none-eabi/arm-none-eabi/include/c++/13.2.1/cmath ****     typename __gnu_cxx::__enable_if<__is_integer<_Tp>::__value, 
 169:/Applications/ArmGNUToolchain/13.2.Rel1/arm-none-eabi/arm-none-eabi/include/c++/13.2.1/cmath ****                                     double>::__type
 170:/Applications/ArmGNUToolchain/13.2.Rel1/arm-none-eabi/arm-none-eabi/include/c++/13.2.1/cmath ****     ceil(_Tp __x)
 171:/Applications/ArmGNUToolchain/13.2.Rel1/arm-none-eabi/arm-none-eabi/include/c++/13.2.1/cmath ****     { return __builtin_ceil(__x); }
 172:/Applications/ArmGNUToolchain/13.2.Rel1/arm-none-eabi/arm-none-eabi/include/c++/13.2.1/cmath **** 
 173:/Applications/ArmGNUToolchain/13.2.Rel1/arm-none-eabi/arm-none-eabi/include/c++/13.2.1/cmath ****   using ::cos;
 174:/Applications/ArmGNUToolchain/13.2.Rel1/arm-none-eabi/arm-none-eabi/include/c++/13.2.1/cmath **** 
 175:/Applications/ArmGNUToolchain/13.2.Rel1/arm-none-eabi/arm-none-eabi/include/c++/13.2.1/cmath **** #ifndef __CORRECT_ISO_CPP_MATH_H_PROTO
 176:/Applications/ArmGNUToolchain/13.2.Rel1/arm-none-eabi/arm-none-eabi/include/c++/13.2.1/cmath ****   inline _GLIBCXX_CONSTEXPR float
 177:/Applications/ArmGNUToolchain/13.2.Rel1/arm-none-eabi/arm-none-eabi/include/c++/13.2.1/cmath ****   cos(float __x)
 178:/Applications/ArmGNUToolchain/13.2.Rel1/arm-none-eabi/arm-none-eabi/include/c++/13.2.1/cmath ****   { return __builtin_cosf(__x); }
  29              		.loc 2 178 3
  30              		.cfi_startproc
  31              		@ args = 0, pretend = 0, frame = 8
  32              		@ frame_needed = 1, uses_anonymous_args = 0
  33 0000 80B5     		push	{r7, lr}
  34              		.cfi_def_cfa_offset 8
  35              		.cfi_offset 7, -8
  36              		.cfi_offset 14, -4
  37 0002 82B0     		sub	sp, sp, #8
  38              		.cfi_def_cfa_offset 16
  39 0004 00AF     		add	r7, sp, #0
  40              		.cfi_def_cfa_register 7
  41 0006 87ED010A 		vstr.32	s0, [r7, #4]
  42              		.loc 2 178 26
  43 000a 97ED010A 		vldr.32	s0, [r7, #4]
  44 000e FFF7FEFF 		bl	cosf
  45 0012 F0EE407A 		vmov.f32	s15, s0
  46              		.loc 2 178 33
  47 0016 B0EE670A 		vmov.f32	s0, s15
  48 001a 0837     		adds	r7, r7, #8
  49              		.cfi_def_cfa_offset 8
  50 001c BD46     		mov	sp, r7
  51              		.cfi_def_cfa_register 13
ARM GAS  /var/folders/f7/sjskzmt15v119_37bs_xt4r00000gn/T//cc3cAasR.s 			page 5


  52              		@ sp needed
  53 001e 80BD     		pop	{r7, pc}
  54              		.cfi_endproc
  55              	.LFE159:
  57              		.section	.text._ZSt3powff,"axG",%progbits,_ZSt3powff,comdat
  58              		.align	1
  59              		.weak	_ZSt3powff
  60              		.syntax unified
  61              		.thumb
  62              		.thumb_func
  64              	_ZSt3powff:
  65              	.LFB190:
 179:/Applications/ArmGNUToolchain/13.2.Rel1/arm-none-eabi/arm-none-eabi/include/c++/13.2.1/cmath **** 
 180:/Applications/ArmGNUToolchain/13.2.Rel1/arm-none-eabi/arm-none-eabi/include/c++/13.2.1/cmath ****   inline _GLIBCXX_CONSTEXPR long double
 181:/Applications/ArmGNUToolchain/13.2.Rel1/arm-none-eabi/arm-none-eabi/include/c++/13.2.1/cmath ****   cos(long double __x)
 182:/Applications/ArmGNUToolchain/13.2.Rel1/arm-none-eabi/arm-none-eabi/include/c++/13.2.1/cmath ****   { return __builtin_cosl(__x); }
 183:/Applications/ArmGNUToolchain/13.2.Rel1/arm-none-eabi/arm-none-eabi/include/c++/13.2.1/cmath **** #endif
 184:/Applications/ArmGNUToolchain/13.2.Rel1/arm-none-eabi/arm-none-eabi/include/c++/13.2.1/cmath **** 
 185:/Applications/ArmGNUToolchain/13.2.Rel1/arm-none-eabi/arm-none-eabi/include/c++/13.2.1/cmath ****   template<typename _Tp>
 186:/Applications/ArmGNUToolchain/13.2.Rel1/arm-none-eabi/arm-none-eabi/include/c++/13.2.1/cmath ****     inline _GLIBCXX_CONSTEXPR
 187:/Applications/ArmGNUToolchain/13.2.Rel1/arm-none-eabi/arm-none-eabi/include/c++/13.2.1/cmath ****     typename __gnu_cxx::__enable_if<__is_integer<_Tp>::__value,
 188:/Applications/ArmGNUToolchain/13.2.Rel1/arm-none-eabi/arm-none-eabi/include/c++/13.2.1/cmath ****                                     double>::__type
 189:/Applications/ArmGNUToolchain/13.2.Rel1/arm-none-eabi/arm-none-eabi/include/c++/13.2.1/cmath ****     cos(_Tp __x)
 190:/Applications/ArmGNUToolchain/13.2.Rel1/arm-none-eabi/arm-none-eabi/include/c++/13.2.1/cmath ****     { return __builtin_cos(__x); }
 191:/Applications/ArmGNUToolchain/13.2.Rel1/arm-none-eabi/arm-none-eabi/include/c++/13.2.1/cmath **** 
 192:/Applications/ArmGNUToolchain/13.2.Rel1/arm-none-eabi/arm-none-eabi/include/c++/13.2.1/cmath ****   using ::cosh;
 193:/Applications/ArmGNUToolchain/13.2.Rel1/arm-none-eabi/arm-none-eabi/include/c++/13.2.1/cmath **** 
 194:/Applications/ArmGNUToolchain/13.2.Rel1/arm-none-eabi/arm-none-eabi/include/c++/13.2.1/cmath **** #ifndef __CORRECT_ISO_CPP_MATH_H_PROTO
 195:/Applications/ArmGNUToolchain/13.2.Rel1/arm-none-eabi/arm-none-eabi/include/c++/13.2.1/cmath ****   inline _GLIBCXX_CONSTEXPR float
 196:/Applications/ArmGNUToolchain/13.2.Rel1/arm-none-eabi/arm-none-eabi/include/c++/13.2.1/cmath ****   cosh(float __x)
 197:/Applications/ArmGNUToolchain/13.2.Rel1/arm-none-eabi/arm-none-eabi/include/c++/13.2.1/cmath ****   { return __builtin_coshf(__x); }
 198:/Applications/ArmGNUToolchain/13.2.Rel1/arm-none-eabi/arm-none-eabi/include/c++/13.2.1/cmath **** 
 199:/Applications/ArmGNUToolchain/13.2.Rel1/arm-none-eabi/arm-none-eabi/include/c++/13.2.1/cmath ****   inline _GLIBCXX_CONSTEXPR long double
 200:/Applications/ArmGNUToolchain/13.2.Rel1/arm-none-eabi/arm-none-eabi/include/c++/13.2.1/cmath ****   cosh(long double __x)
 201:/Applications/ArmGNUToolchain/13.2.Rel1/arm-none-eabi/arm-none-eabi/include/c++/13.2.1/cmath ****   { return __builtin_coshl(__x); }
 202:/Applications/ArmGNUToolchain/13.2.Rel1/arm-none-eabi/arm-none-eabi/include/c++/13.2.1/cmath **** #endif
 203:/Applications/ArmGNUToolchain/13.2.Rel1/arm-none-eabi/arm-none-eabi/include/c++/13.2.1/cmath **** 
 204:/Applications/ArmGNUToolchain/13.2.Rel1/arm-none-eabi/arm-none-eabi/include/c++/13.2.1/cmath ****   template<typename _Tp>
 205:/Applications/ArmGNUToolchain/13.2.Rel1/arm-none-eabi/arm-none-eabi/include/c++/13.2.1/cmath ****     inline _GLIBCXX_CONSTEXPR
 206:/Applications/ArmGNUToolchain/13.2.Rel1/arm-none-eabi/arm-none-eabi/include/c++/13.2.1/cmath ****     typename __gnu_cxx::__enable_if<__is_integer<_Tp>::__value,
 207:/Applications/ArmGNUToolchain/13.2.Rel1/arm-none-eabi/arm-none-eabi/include/c++/13.2.1/cmath ****                                     double>::__type
 208:/Applications/ArmGNUToolchain/13.2.Rel1/arm-none-eabi/arm-none-eabi/include/c++/13.2.1/cmath ****     cosh(_Tp __x)
 209:/Applications/ArmGNUToolchain/13.2.Rel1/arm-none-eabi/arm-none-eabi/include/c++/13.2.1/cmath ****     { return __builtin_cosh(__x); }
 210:/Applications/ArmGNUToolchain/13.2.Rel1/arm-none-eabi/arm-none-eabi/include/c++/13.2.1/cmath **** 
 211:/Applications/ArmGNUToolchain/13.2.Rel1/arm-none-eabi/arm-none-eabi/include/c++/13.2.1/cmath ****   using ::exp;
 212:/Applications/ArmGNUToolchain/13.2.Rel1/arm-none-eabi/arm-none-eabi/include/c++/13.2.1/cmath **** 
 213:/Applications/ArmGNUToolchain/13.2.Rel1/arm-none-eabi/arm-none-eabi/include/c++/13.2.1/cmath **** #ifndef __CORRECT_ISO_CPP_MATH_H_PROTO
 214:/Applications/ArmGNUToolchain/13.2.Rel1/arm-none-eabi/arm-none-eabi/include/c++/13.2.1/cmath ****   inline _GLIBCXX_CONSTEXPR float
 215:/Applications/ArmGNUToolchain/13.2.Rel1/arm-none-eabi/arm-none-eabi/include/c++/13.2.1/cmath ****   exp(float __x)
 216:/Applications/ArmGNUToolchain/13.2.Rel1/arm-none-eabi/arm-none-eabi/include/c++/13.2.1/cmath ****   { return __builtin_expf(__x); }
 217:/Applications/ArmGNUToolchain/13.2.Rel1/arm-none-eabi/arm-none-eabi/include/c++/13.2.1/cmath **** 
 218:/Applications/ArmGNUToolchain/13.2.Rel1/arm-none-eabi/arm-none-eabi/include/c++/13.2.1/cmath ****   inline _GLIBCXX_CONSTEXPR long double
 219:/Applications/ArmGNUToolchain/13.2.Rel1/arm-none-eabi/arm-none-eabi/include/c++/13.2.1/cmath ****   exp(long double __x)
 220:/Applications/ArmGNUToolchain/13.2.Rel1/arm-none-eabi/arm-none-eabi/include/c++/13.2.1/cmath ****   { return __builtin_expl(__x); }
 221:/Applications/ArmGNUToolchain/13.2.Rel1/arm-none-eabi/arm-none-eabi/include/c++/13.2.1/cmath **** #endif
 222:/Applications/ArmGNUToolchain/13.2.Rel1/arm-none-eabi/arm-none-eabi/include/c++/13.2.1/cmath **** 
 223:/Applications/ArmGNUToolchain/13.2.Rel1/arm-none-eabi/arm-none-eabi/include/c++/13.2.1/cmath ****   template<typename _Tp>
ARM GAS  /var/folders/f7/sjskzmt15v119_37bs_xt4r00000gn/T//cc3cAasR.s 			page 6


 224:/Applications/ArmGNUToolchain/13.2.Rel1/arm-none-eabi/arm-none-eabi/include/c++/13.2.1/cmath ****     inline _GLIBCXX_CONSTEXPR
 225:/Applications/ArmGNUToolchain/13.2.Rel1/arm-none-eabi/arm-none-eabi/include/c++/13.2.1/cmath ****     typename __gnu_cxx::__enable_if<__is_integer<_Tp>::__value,
 226:/Applications/ArmGNUToolchain/13.2.Rel1/arm-none-eabi/arm-none-eabi/include/c++/13.2.1/cmath ****                                     double>::__type
 227:/Applications/ArmGNUToolchain/13.2.Rel1/arm-none-eabi/arm-none-eabi/include/c++/13.2.1/cmath ****     exp(_Tp __x)
 228:/Applications/ArmGNUToolchain/13.2.Rel1/arm-none-eabi/arm-none-eabi/include/c++/13.2.1/cmath ****     { return __builtin_exp(__x); }
 229:/Applications/ArmGNUToolchain/13.2.Rel1/arm-none-eabi/arm-none-eabi/include/c++/13.2.1/cmath **** 
 230:/Applications/ArmGNUToolchain/13.2.Rel1/arm-none-eabi/arm-none-eabi/include/c++/13.2.1/cmath ****   using ::fabs;
 231:/Applications/ArmGNUToolchain/13.2.Rel1/arm-none-eabi/arm-none-eabi/include/c++/13.2.1/cmath **** 
 232:/Applications/ArmGNUToolchain/13.2.Rel1/arm-none-eabi/arm-none-eabi/include/c++/13.2.1/cmath **** #ifndef __CORRECT_ISO_CPP_MATH_H_PROTO
 233:/Applications/ArmGNUToolchain/13.2.Rel1/arm-none-eabi/arm-none-eabi/include/c++/13.2.1/cmath ****   inline _GLIBCXX_CONSTEXPR float
 234:/Applications/ArmGNUToolchain/13.2.Rel1/arm-none-eabi/arm-none-eabi/include/c++/13.2.1/cmath ****   fabs(float __x)
 235:/Applications/ArmGNUToolchain/13.2.Rel1/arm-none-eabi/arm-none-eabi/include/c++/13.2.1/cmath ****   { return __builtin_fabsf(__x); }
 236:/Applications/ArmGNUToolchain/13.2.Rel1/arm-none-eabi/arm-none-eabi/include/c++/13.2.1/cmath **** 
 237:/Applications/ArmGNUToolchain/13.2.Rel1/arm-none-eabi/arm-none-eabi/include/c++/13.2.1/cmath ****   inline _GLIBCXX_CONSTEXPR long double
 238:/Applications/ArmGNUToolchain/13.2.Rel1/arm-none-eabi/arm-none-eabi/include/c++/13.2.1/cmath ****   fabs(long double __x)
 239:/Applications/ArmGNUToolchain/13.2.Rel1/arm-none-eabi/arm-none-eabi/include/c++/13.2.1/cmath ****   { return __builtin_fabsl(__x); }
 240:/Applications/ArmGNUToolchain/13.2.Rel1/arm-none-eabi/arm-none-eabi/include/c++/13.2.1/cmath **** #endif
 241:/Applications/ArmGNUToolchain/13.2.Rel1/arm-none-eabi/arm-none-eabi/include/c++/13.2.1/cmath **** 
 242:/Applications/ArmGNUToolchain/13.2.Rel1/arm-none-eabi/arm-none-eabi/include/c++/13.2.1/cmath ****   template<typename _Tp>
 243:/Applications/ArmGNUToolchain/13.2.Rel1/arm-none-eabi/arm-none-eabi/include/c++/13.2.1/cmath ****     inline _GLIBCXX_CONSTEXPR
 244:/Applications/ArmGNUToolchain/13.2.Rel1/arm-none-eabi/arm-none-eabi/include/c++/13.2.1/cmath ****     typename __gnu_cxx::__enable_if<__is_integer<_Tp>::__value,
 245:/Applications/ArmGNUToolchain/13.2.Rel1/arm-none-eabi/arm-none-eabi/include/c++/13.2.1/cmath ****                                     double>::__type
 246:/Applications/ArmGNUToolchain/13.2.Rel1/arm-none-eabi/arm-none-eabi/include/c++/13.2.1/cmath ****     fabs(_Tp __x)
 247:/Applications/ArmGNUToolchain/13.2.Rel1/arm-none-eabi/arm-none-eabi/include/c++/13.2.1/cmath ****     { return __builtin_fabs(__x); }
 248:/Applications/ArmGNUToolchain/13.2.Rel1/arm-none-eabi/arm-none-eabi/include/c++/13.2.1/cmath **** 
 249:/Applications/ArmGNUToolchain/13.2.Rel1/arm-none-eabi/arm-none-eabi/include/c++/13.2.1/cmath ****   using ::floor;
 250:/Applications/ArmGNUToolchain/13.2.Rel1/arm-none-eabi/arm-none-eabi/include/c++/13.2.1/cmath **** 
 251:/Applications/ArmGNUToolchain/13.2.Rel1/arm-none-eabi/arm-none-eabi/include/c++/13.2.1/cmath **** #ifndef __CORRECT_ISO_CPP_MATH_H_PROTO
 252:/Applications/ArmGNUToolchain/13.2.Rel1/arm-none-eabi/arm-none-eabi/include/c++/13.2.1/cmath ****   inline _GLIBCXX_CONSTEXPR float
 253:/Applications/ArmGNUToolchain/13.2.Rel1/arm-none-eabi/arm-none-eabi/include/c++/13.2.1/cmath ****   floor(float __x)
 254:/Applications/ArmGNUToolchain/13.2.Rel1/arm-none-eabi/arm-none-eabi/include/c++/13.2.1/cmath ****   { return __builtin_floorf(__x); }
 255:/Applications/ArmGNUToolchain/13.2.Rel1/arm-none-eabi/arm-none-eabi/include/c++/13.2.1/cmath **** 
 256:/Applications/ArmGNUToolchain/13.2.Rel1/arm-none-eabi/arm-none-eabi/include/c++/13.2.1/cmath ****   inline _GLIBCXX_CONSTEXPR long double
 257:/Applications/ArmGNUToolchain/13.2.Rel1/arm-none-eabi/arm-none-eabi/include/c++/13.2.1/cmath ****   floor(long double __x)
 258:/Applications/ArmGNUToolchain/13.2.Rel1/arm-none-eabi/arm-none-eabi/include/c++/13.2.1/cmath ****   { return __builtin_floorl(__x); }
 259:/Applications/ArmGNUToolchain/13.2.Rel1/arm-none-eabi/arm-none-eabi/include/c++/13.2.1/cmath **** #endif
 260:/Applications/ArmGNUToolchain/13.2.Rel1/arm-none-eabi/arm-none-eabi/include/c++/13.2.1/cmath **** 
 261:/Applications/ArmGNUToolchain/13.2.Rel1/arm-none-eabi/arm-none-eabi/include/c++/13.2.1/cmath ****   template<typename _Tp>
 262:/Applications/ArmGNUToolchain/13.2.Rel1/arm-none-eabi/arm-none-eabi/include/c++/13.2.1/cmath ****     inline _GLIBCXX_CONSTEXPR
 263:/Applications/ArmGNUToolchain/13.2.Rel1/arm-none-eabi/arm-none-eabi/include/c++/13.2.1/cmath ****     typename __gnu_cxx::__enable_if<__is_integer<_Tp>::__value,
 264:/Applications/ArmGNUToolchain/13.2.Rel1/arm-none-eabi/arm-none-eabi/include/c++/13.2.1/cmath ****                                     double>::__type
 265:/Applications/ArmGNUToolchain/13.2.Rel1/arm-none-eabi/arm-none-eabi/include/c++/13.2.1/cmath ****     floor(_Tp __x)
 266:/Applications/ArmGNUToolchain/13.2.Rel1/arm-none-eabi/arm-none-eabi/include/c++/13.2.1/cmath ****     { return __builtin_floor(__x); }
 267:/Applications/ArmGNUToolchain/13.2.Rel1/arm-none-eabi/arm-none-eabi/include/c++/13.2.1/cmath **** 
 268:/Applications/ArmGNUToolchain/13.2.Rel1/arm-none-eabi/arm-none-eabi/include/c++/13.2.1/cmath ****   using ::fmod;
 269:/Applications/ArmGNUToolchain/13.2.Rel1/arm-none-eabi/arm-none-eabi/include/c++/13.2.1/cmath **** 
 270:/Applications/ArmGNUToolchain/13.2.Rel1/arm-none-eabi/arm-none-eabi/include/c++/13.2.1/cmath **** #ifndef __CORRECT_ISO_CPP_MATH_H_PROTO
 271:/Applications/ArmGNUToolchain/13.2.Rel1/arm-none-eabi/arm-none-eabi/include/c++/13.2.1/cmath ****   inline _GLIBCXX_CONSTEXPR float
 272:/Applications/ArmGNUToolchain/13.2.Rel1/arm-none-eabi/arm-none-eabi/include/c++/13.2.1/cmath ****   fmod(float __x, float __y)
 273:/Applications/ArmGNUToolchain/13.2.Rel1/arm-none-eabi/arm-none-eabi/include/c++/13.2.1/cmath ****   { return __builtin_fmodf(__x, __y); }
 274:/Applications/ArmGNUToolchain/13.2.Rel1/arm-none-eabi/arm-none-eabi/include/c++/13.2.1/cmath **** 
 275:/Applications/ArmGNUToolchain/13.2.Rel1/arm-none-eabi/arm-none-eabi/include/c++/13.2.1/cmath ****   inline _GLIBCXX_CONSTEXPR long double
 276:/Applications/ArmGNUToolchain/13.2.Rel1/arm-none-eabi/arm-none-eabi/include/c++/13.2.1/cmath ****   fmod(long double __x, long double __y)
 277:/Applications/ArmGNUToolchain/13.2.Rel1/arm-none-eabi/arm-none-eabi/include/c++/13.2.1/cmath ****   { return __builtin_fmodl(__x, __y); }
 278:/Applications/ArmGNUToolchain/13.2.Rel1/arm-none-eabi/arm-none-eabi/include/c++/13.2.1/cmath **** #endif
 279:/Applications/ArmGNUToolchain/13.2.Rel1/arm-none-eabi/arm-none-eabi/include/c++/13.2.1/cmath **** 
 280:/Applications/ArmGNUToolchain/13.2.Rel1/arm-none-eabi/arm-none-eabi/include/c++/13.2.1/cmath ****   using ::frexp;
ARM GAS  /var/folders/f7/sjskzmt15v119_37bs_xt4r00000gn/T//cc3cAasR.s 			page 7


 281:/Applications/ArmGNUToolchain/13.2.Rel1/arm-none-eabi/arm-none-eabi/include/c++/13.2.1/cmath **** 
 282:/Applications/ArmGNUToolchain/13.2.Rel1/arm-none-eabi/arm-none-eabi/include/c++/13.2.1/cmath **** #ifndef __CORRECT_ISO_CPP_MATH_H_PROTO
 283:/Applications/ArmGNUToolchain/13.2.Rel1/arm-none-eabi/arm-none-eabi/include/c++/13.2.1/cmath ****   inline float
 284:/Applications/ArmGNUToolchain/13.2.Rel1/arm-none-eabi/arm-none-eabi/include/c++/13.2.1/cmath ****   frexp(float __x, int* __exp)
 285:/Applications/ArmGNUToolchain/13.2.Rel1/arm-none-eabi/arm-none-eabi/include/c++/13.2.1/cmath ****   { return __builtin_frexpf(__x, __exp); }
 286:/Applications/ArmGNUToolchain/13.2.Rel1/arm-none-eabi/arm-none-eabi/include/c++/13.2.1/cmath **** 
 287:/Applications/ArmGNUToolchain/13.2.Rel1/arm-none-eabi/arm-none-eabi/include/c++/13.2.1/cmath ****   inline long double
 288:/Applications/ArmGNUToolchain/13.2.Rel1/arm-none-eabi/arm-none-eabi/include/c++/13.2.1/cmath ****   frexp(long double __x, int* __exp)
 289:/Applications/ArmGNUToolchain/13.2.Rel1/arm-none-eabi/arm-none-eabi/include/c++/13.2.1/cmath ****   { return __builtin_frexpl(__x, __exp); }
 290:/Applications/ArmGNUToolchain/13.2.Rel1/arm-none-eabi/arm-none-eabi/include/c++/13.2.1/cmath **** #endif
 291:/Applications/ArmGNUToolchain/13.2.Rel1/arm-none-eabi/arm-none-eabi/include/c++/13.2.1/cmath **** 
 292:/Applications/ArmGNUToolchain/13.2.Rel1/arm-none-eabi/arm-none-eabi/include/c++/13.2.1/cmath ****   template<typename _Tp>
 293:/Applications/ArmGNUToolchain/13.2.Rel1/arm-none-eabi/arm-none-eabi/include/c++/13.2.1/cmath ****     inline _GLIBCXX_CONSTEXPR
 294:/Applications/ArmGNUToolchain/13.2.Rel1/arm-none-eabi/arm-none-eabi/include/c++/13.2.1/cmath ****     typename __gnu_cxx::__enable_if<__is_integer<_Tp>::__value, 
 295:/Applications/ArmGNUToolchain/13.2.Rel1/arm-none-eabi/arm-none-eabi/include/c++/13.2.1/cmath ****                                     double>::__type
 296:/Applications/ArmGNUToolchain/13.2.Rel1/arm-none-eabi/arm-none-eabi/include/c++/13.2.1/cmath ****     frexp(_Tp __x, int* __exp)
 297:/Applications/ArmGNUToolchain/13.2.Rel1/arm-none-eabi/arm-none-eabi/include/c++/13.2.1/cmath ****     { return __builtin_frexp(__x, __exp); }
 298:/Applications/ArmGNUToolchain/13.2.Rel1/arm-none-eabi/arm-none-eabi/include/c++/13.2.1/cmath **** 
 299:/Applications/ArmGNUToolchain/13.2.Rel1/arm-none-eabi/arm-none-eabi/include/c++/13.2.1/cmath ****   using ::ldexp;
 300:/Applications/ArmGNUToolchain/13.2.Rel1/arm-none-eabi/arm-none-eabi/include/c++/13.2.1/cmath **** 
 301:/Applications/ArmGNUToolchain/13.2.Rel1/arm-none-eabi/arm-none-eabi/include/c++/13.2.1/cmath **** #ifndef __CORRECT_ISO_CPP_MATH_H_PROTO
 302:/Applications/ArmGNUToolchain/13.2.Rel1/arm-none-eabi/arm-none-eabi/include/c++/13.2.1/cmath ****   inline _GLIBCXX_CONSTEXPR float
 303:/Applications/ArmGNUToolchain/13.2.Rel1/arm-none-eabi/arm-none-eabi/include/c++/13.2.1/cmath ****   ldexp(float __x, int __exp)
 304:/Applications/ArmGNUToolchain/13.2.Rel1/arm-none-eabi/arm-none-eabi/include/c++/13.2.1/cmath ****   { return __builtin_ldexpf(__x, __exp); }
 305:/Applications/ArmGNUToolchain/13.2.Rel1/arm-none-eabi/arm-none-eabi/include/c++/13.2.1/cmath **** 
 306:/Applications/ArmGNUToolchain/13.2.Rel1/arm-none-eabi/arm-none-eabi/include/c++/13.2.1/cmath ****   inline _GLIBCXX_CONSTEXPR long double
 307:/Applications/ArmGNUToolchain/13.2.Rel1/arm-none-eabi/arm-none-eabi/include/c++/13.2.1/cmath ****   ldexp(long double __x, int __exp)
 308:/Applications/ArmGNUToolchain/13.2.Rel1/arm-none-eabi/arm-none-eabi/include/c++/13.2.1/cmath ****   { return __builtin_ldexpl(__x, __exp); }
 309:/Applications/ArmGNUToolchain/13.2.Rel1/arm-none-eabi/arm-none-eabi/include/c++/13.2.1/cmath **** #endif
 310:/Applications/ArmGNUToolchain/13.2.Rel1/arm-none-eabi/arm-none-eabi/include/c++/13.2.1/cmath **** 
 311:/Applications/ArmGNUToolchain/13.2.Rel1/arm-none-eabi/arm-none-eabi/include/c++/13.2.1/cmath ****   template<typename _Tp>
 312:/Applications/ArmGNUToolchain/13.2.Rel1/arm-none-eabi/arm-none-eabi/include/c++/13.2.1/cmath ****     inline _GLIBCXX_CONSTEXPR
 313:/Applications/ArmGNUToolchain/13.2.Rel1/arm-none-eabi/arm-none-eabi/include/c++/13.2.1/cmath ****     typename __gnu_cxx::__enable_if<__is_integer<_Tp>::__value, 
 314:/Applications/ArmGNUToolchain/13.2.Rel1/arm-none-eabi/arm-none-eabi/include/c++/13.2.1/cmath ****                                     double>::__type
 315:/Applications/ArmGNUToolchain/13.2.Rel1/arm-none-eabi/arm-none-eabi/include/c++/13.2.1/cmath ****     ldexp(_Tp __x, int __exp)
 316:/Applications/ArmGNUToolchain/13.2.Rel1/arm-none-eabi/arm-none-eabi/include/c++/13.2.1/cmath ****     { return __builtin_ldexp(__x, __exp); }
 317:/Applications/ArmGNUToolchain/13.2.Rel1/arm-none-eabi/arm-none-eabi/include/c++/13.2.1/cmath **** 
 318:/Applications/ArmGNUToolchain/13.2.Rel1/arm-none-eabi/arm-none-eabi/include/c++/13.2.1/cmath ****   using ::log;
 319:/Applications/ArmGNUToolchain/13.2.Rel1/arm-none-eabi/arm-none-eabi/include/c++/13.2.1/cmath **** 
 320:/Applications/ArmGNUToolchain/13.2.Rel1/arm-none-eabi/arm-none-eabi/include/c++/13.2.1/cmath **** #ifndef __CORRECT_ISO_CPP_MATH_H_PROTO
 321:/Applications/ArmGNUToolchain/13.2.Rel1/arm-none-eabi/arm-none-eabi/include/c++/13.2.1/cmath ****   inline _GLIBCXX_CONSTEXPR float
 322:/Applications/ArmGNUToolchain/13.2.Rel1/arm-none-eabi/arm-none-eabi/include/c++/13.2.1/cmath ****   log(float __x)
 323:/Applications/ArmGNUToolchain/13.2.Rel1/arm-none-eabi/arm-none-eabi/include/c++/13.2.1/cmath ****   { return __builtin_logf(__x); }
 324:/Applications/ArmGNUToolchain/13.2.Rel1/arm-none-eabi/arm-none-eabi/include/c++/13.2.1/cmath **** 
 325:/Applications/ArmGNUToolchain/13.2.Rel1/arm-none-eabi/arm-none-eabi/include/c++/13.2.1/cmath ****   inline _GLIBCXX_CONSTEXPR long double
 326:/Applications/ArmGNUToolchain/13.2.Rel1/arm-none-eabi/arm-none-eabi/include/c++/13.2.1/cmath ****   log(long double __x)
 327:/Applications/ArmGNUToolchain/13.2.Rel1/arm-none-eabi/arm-none-eabi/include/c++/13.2.1/cmath ****   { return __builtin_logl(__x); }
 328:/Applications/ArmGNUToolchain/13.2.Rel1/arm-none-eabi/arm-none-eabi/include/c++/13.2.1/cmath **** #endif
 329:/Applications/ArmGNUToolchain/13.2.Rel1/arm-none-eabi/arm-none-eabi/include/c++/13.2.1/cmath **** 
 330:/Applications/ArmGNUToolchain/13.2.Rel1/arm-none-eabi/arm-none-eabi/include/c++/13.2.1/cmath ****   template<typename _Tp>
 331:/Applications/ArmGNUToolchain/13.2.Rel1/arm-none-eabi/arm-none-eabi/include/c++/13.2.1/cmath ****     inline _GLIBCXX_CONSTEXPR
 332:/Applications/ArmGNUToolchain/13.2.Rel1/arm-none-eabi/arm-none-eabi/include/c++/13.2.1/cmath ****     typename __gnu_cxx::__enable_if<__is_integer<_Tp>::__value, 
 333:/Applications/ArmGNUToolchain/13.2.Rel1/arm-none-eabi/arm-none-eabi/include/c++/13.2.1/cmath ****                                     double>::__type
 334:/Applications/ArmGNUToolchain/13.2.Rel1/arm-none-eabi/arm-none-eabi/include/c++/13.2.1/cmath ****     log(_Tp __x)
 335:/Applications/ArmGNUToolchain/13.2.Rel1/arm-none-eabi/arm-none-eabi/include/c++/13.2.1/cmath ****     { return __builtin_log(__x); }
 336:/Applications/ArmGNUToolchain/13.2.Rel1/arm-none-eabi/arm-none-eabi/include/c++/13.2.1/cmath **** 
 337:/Applications/ArmGNUToolchain/13.2.Rel1/arm-none-eabi/arm-none-eabi/include/c++/13.2.1/cmath ****   using ::log10;
ARM GAS  /var/folders/f7/sjskzmt15v119_37bs_xt4r00000gn/T//cc3cAasR.s 			page 8


 338:/Applications/ArmGNUToolchain/13.2.Rel1/arm-none-eabi/arm-none-eabi/include/c++/13.2.1/cmath **** 
 339:/Applications/ArmGNUToolchain/13.2.Rel1/arm-none-eabi/arm-none-eabi/include/c++/13.2.1/cmath **** #ifndef __CORRECT_ISO_CPP_MATH_H_PROTO
 340:/Applications/ArmGNUToolchain/13.2.Rel1/arm-none-eabi/arm-none-eabi/include/c++/13.2.1/cmath ****   inline _GLIBCXX_CONSTEXPR float
 341:/Applications/ArmGNUToolchain/13.2.Rel1/arm-none-eabi/arm-none-eabi/include/c++/13.2.1/cmath ****   log10(float __x)
 342:/Applications/ArmGNUToolchain/13.2.Rel1/arm-none-eabi/arm-none-eabi/include/c++/13.2.1/cmath ****   { return __builtin_log10f(__x); }
 343:/Applications/ArmGNUToolchain/13.2.Rel1/arm-none-eabi/arm-none-eabi/include/c++/13.2.1/cmath **** 
 344:/Applications/ArmGNUToolchain/13.2.Rel1/arm-none-eabi/arm-none-eabi/include/c++/13.2.1/cmath ****   inline _GLIBCXX_CONSTEXPR long double
 345:/Applications/ArmGNUToolchain/13.2.Rel1/arm-none-eabi/arm-none-eabi/include/c++/13.2.1/cmath ****   log10(long double __x)
 346:/Applications/ArmGNUToolchain/13.2.Rel1/arm-none-eabi/arm-none-eabi/include/c++/13.2.1/cmath ****   { return __builtin_log10l(__x); }
 347:/Applications/ArmGNUToolchain/13.2.Rel1/arm-none-eabi/arm-none-eabi/include/c++/13.2.1/cmath **** #endif
 348:/Applications/ArmGNUToolchain/13.2.Rel1/arm-none-eabi/arm-none-eabi/include/c++/13.2.1/cmath **** 
 349:/Applications/ArmGNUToolchain/13.2.Rel1/arm-none-eabi/arm-none-eabi/include/c++/13.2.1/cmath ****   template<typename _Tp>
 350:/Applications/ArmGNUToolchain/13.2.Rel1/arm-none-eabi/arm-none-eabi/include/c++/13.2.1/cmath ****     inline _GLIBCXX_CONSTEXPR
 351:/Applications/ArmGNUToolchain/13.2.Rel1/arm-none-eabi/arm-none-eabi/include/c++/13.2.1/cmath ****     typename __gnu_cxx::__enable_if<__is_integer<_Tp>::__value,
 352:/Applications/ArmGNUToolchain/13.2.Rel1/arm-none-eabi/arm-none-eabi/include/c++/13.2.1/cmath ****                                     double>::__type
 353:/Applications/ArmGNUToolchain/13.2.Rel1/arm-none-eabi/arm-none-eabi/include/c++/13.2.1/cmath ****     log10(_Tp __x)
 354:/Applications/ArmGNUToolchain/13.2.Rel1/arm-none-eabi/arm-none-eabi/include/c++/13.2.1/cmath ****     { return __builtin_log10(__x); }
 355:/Applications/ArmGNUToolchain/13.2.Rel1/arm-none-eabi/arm-none-eabi/include/c++/13.2.1/cmath **** 
 356:/Applications/ArmGNUToolchain/13.2.Rel1/arm-none-eabi/arm-none-eabi/include/c++/13.2.1/cmath ****   using ::modf;
 357:/Applications/ArmGNUToolchain/13.2.Rel1/arm-none-eabi/arm-none-eabi/include/c++/13.2.1/cmath **** 
 358:/Applications/ArmGNUToolchain/13.2.Rel1/arm-none-eabi/arm-none-eabi/include/c++/13.2.1/cmath **** #ifndef __CORRECT_ISO_CPP_MATH_H_PROTO
 359:/Applications/ArmGNUToolchain/13.2.Rel1/arm-none-eabi/arm-none-eabi/include/c++/13.2.1/cmath ****   inline float
 360:/Applications/ArmGNUToolchain/13.2.Rel1/arm-none-eabi/arm-none-eabi/include/c++/13.2.1/cmath ****   modf(float __x, float* __iptr)
 361:/Applications/ArmGNUToolchain/13.2.Rel1/arm-none-eabi/arm-none-eabi/include/c++/13.2.1/cmath ****   { return __builtin_modff(__x, __iptr); }
 362:/Applications/ArmGNUToolchain/13.2.Rel1/arm-none-eabi/arm-none-eabi/include/c++/13.2.1/cmath **** 
 363:/Applications/ArmGNUToolchain/13.2.Rel1/arm-none-eabi/arm-none-eabi/include/c++/13.2.1/cmath ****   inline long double
 364:/Applications/ArmGNUToolchain/13.2.Rel1/arm-none-eabi/arm-none-eabi/include/c++/13.2.1/cmath ****   modf(long double __x, long double* __iptr)
 365:/Applications/ArmGNUToolchain/13.2.Rel1/arm-none-eabi/arm-none-eabi/include/c++/13.2.1/cmath ****   { return __builtin_modfl(__x, __iptr); }
 366:/Applications/ArmGNUToolchain/13.2.Rel1/arm-none-eabi/arm-none-eabi/include/c++/13.2.1/cmath **** #endif
 367:/Applications/ArmGNUToolchain/13.2.Rel1/arm-none-eabi/arm-none-eabi/include/c++/13.2.1/cmath **** 
 368:/Applications/ArmGNUToolchain/13.2.Rel1/arm-none-eabi/arm-none-eabi/include/c++/13.2.1/cmath ****   using ::pow;
 369:/Applications/ArmGNUToolchain/13.2.Rel1/arm-none-eabi/arm-none-eabi/include/c++/13.2.1/cmath **** 
 370:/Applications/ArmGNUToolchain/13.2.Rel1/arm-none-eabi/arm-none-eabi/include/c++/13.2.1/cmath **** #ifndef __CORRECT_ISO_CPP_MATH_H_PROTO
 371:/Applications/ArmGNUToolchain/13.2.Rel1/arm-none-eabi/arm-none-eabi/include/c++/13.2.1/cmath ****   inline _GLIBCXX_CONSTEXPR float
 372:/Applications/ArmGNUToolchain/13.2.Rel1/arm-none-eabi/arm-none-eabi/include/c++/13.2.1/cmath ****   pow(float __x, float __y)
 373:/Applications/ArmGNUToolchain/13.2.Rel1/arm-none-eabi/arm-none-eabi/include/c++/13.2.1/cmath ****   { return __builtin_powf(__x, __y); }
  66              		.loc 2 373 3
  67              		.cfi_startproc
  68              		@ args = 0, pretend = 0, frame = 8
  69              		@ frame_needed = 1, uses_anonymous_args = 0
  70 0000 80B5     		push	{r7, lr}
  71              		.cfi_def_cfa_offset 8
  72              		.cfi_offset 7, -8
  73              		.cfi_offset 14, -4
  74 0002 82B0     		sub	sp, sp, #8
  75              		.cfi_def_cfa_offset 16
  76 0004 00AF     		add	r7, sp, #0
  77              		.cfi_def_cfa_register 7
  78 0006 87ED010A 		vstr.32	s0, [r7, #4]
  79 000a C7ED000A 		vstr.32	s1, [r7]
  80              		.loc 2 373 26
  81 000e D7ED000A 		vldr.32	s1, [r7]
  82 0012 97ED010A 		vldr.32	s0, [r7, #4]
  83 0016 FFF7FEFF 		bl	powf
  84 001a F0EE407A 		vmov.f32	s15, s0
  85              		.loc 2 373 38
  86 001e B0EE670A 		vmov.f32	s0, s15
ARM GAS  /var/folders/f7/sjskzmt15v119_37bs_xt4r00000gn/T//cc3cAasR.s 			page 9


  87 0022 0837     		adds	r7, r7, #8
  88              		.cfi_def_cfa_offset 8
  89 0024 BD46     		mov	sp, r7
  90              		.cfi_def_cfa_register 13
  91              		@ sp needed
  92 0026 80BD     		pop	{r7, pc}
  93              		.cfi_endproc
  94              	.LFE190:
  96              		.section	.text._ZSt3sinf,"axG",%progbits,_ZSt3sinf,comdat
  97              		.align	1
  98              		.weak	_ZSt3sinf
  99              		.syntax unified
 100              		.thumb
 101              		.thumb_func
 103              	_ZSt3sinf:
 104              	.LFB192:
 374:/Applications/ArmGNUToolchain/13.2.Rel1/arm-none-eabi/arm-none-eabi/include/c++/13.2.1/cmath **** 
 375:/Applications/ArmGNUToolchain/13.2.Rel1/arm-none-eabi/arm-none-eabi/include/c++/13.2.1/cmath ****   inline _GLIBCXX_CONSTEXPR long double
 376:/Applications/ArmGNUToolchain/13.2.Rel1/arm-none-eabi/arm-none-eabi/include/c++/13.2.1/cmath ****   pow(long double __x, long double __y)
 377:/Applications/ArmGNUToolchain/13.2.Rel1/arm-none-eabi/arm-none-eabi/include/c++/13.2.1/cmath ****   { return __builtin_powl(__x, __y); }
 378:/Applications/ArmGNUToolchain/13.2.Rel1/arm-none-eabi/arm-none-eabi/include/c++/13.2.1/cmath **** 
 379:/Applications/ArmGNUToolchain/13.2.Rel1/arm-none-eabi/arm-none-eabi/include/c++/13.2.1/cmath **** #if __cplusplus < 201103L
 380:/Applications/ArmGNUToolchain/13.2.Rel1/arm-none-eabi/arm-none-eabi/include/c++/13.2.1/cmath ****   // _GLIBCXX_RESOLVE_LIB_DEFECTS
 381:/Applications/ArmGNUToolchain/13.2.Rel1/arm-none-eabi/arm-none-eabi/include/c++/13.2.1/cmath ****   // DR 550. What should the return type of pow(float,int) be?
 382:/Applications/ArmGNUToolchain/13.2.Rel1/arm-none-eabi/arm-none-eabi/include/c++/13.2.1/cmath ****   inline double
 383:/Applications/ArmGNUToolchain/13.2.Rel1/arm-none-eabi/arm-none-eabi/include/c++/13.2.1/cmath ****   pow(double __x, int __i)
 384:/Applications/ArmGNUToolchain/13.2.Rel1/arm-none-eabi/arm-none-eabi/include/c++/13.2.1/cmath ****   { return __builtin_powi(__x, __i); }
 385:/Applications/ArmGNUToolchain/13.2.Rel1/arm-none-eabi/arm-none-eabi/include/c++/13.2.1/cmath **** 
 386:/Applications/ArmGNUToolchain/13.2.Rel1/arm-none-eabi/arm-none-eabi/include/c++/13.2.1/cmath ****   inline float
 387:/Applications/ArmGNUToolchain/13.2.Rel1/arm-none-eabi/arm-none-eabi/include/c++/13.2.1/cmath ****   pow(float __x, int __n)
 388:/Applications/ArmGNUToolchain/13.2.Rel1/arm-none-eabi/arm-none-eabi/include/c++/13.2.1/cmath ****   { return __builtin_powif(__x, __n); }
 389:/Applications/ArmGNUToolchain/13.2.Rel1/arm-none-eabi/arm-none-eabi/include/c++/13.2.1/cmath **** 
 390:/Applications/ArmGNUToolchain/13.2.Rel1/arm-none-eabi/arm-none-eabi/include/c++/13.2.1/cmath ****   inline long double
 391:/Applications/ArmGNUToolchain/13.2.Rel1/arm-none-eabi/arm-none-eabi/include/c++/13.2.1/cmath ****   pow(long double __x, int __n)
 392:/Applications/ArmGNUToolchain/13.2.Rel1/arm-none-eabi/arm-none-eabi/include/c++/13.2.1/cmath ****   { return __builtin_powil(__x, __n); }
 393:/Applications/ArmGNUToolchain/13.2.Rel1/arm-none-eabi/arm-none-eabi/include/c++/13.2.1/cmath **** #endif
 394:/Applications/ArmGNUToolchain/13.2.Rel1/arm-none-eabi/arm-none-eabi/include/c++/13.2.1/cmath **** #endif
 395:/Applications/ArmGNUToolchain/13.2.Rel1/arm-none-eabi/arm-none-eabi/include/c++/13.2.1/cmath **** 
 396:/Applications/ArmGNUToolchain/13.2.Rel1/arm-none-eabi/arm-none-eabi/include/c++/13.2.1/cmath ****   using ::sin;
 397:/Applications/ArmGNUToolchain/13.2.Rel1/arm-none-eabi/arm-none-eabi/include/c++/13.2.1/cmath **** 
 398:/Applications/ArmGNUToolchain/13.2.Rel1/arm-none-eabi/arm-none-eabi/include/c++/13.2.1/cmath **** #ifndef __CORRECT_ISO_CPP_MATH_H_PROTO
 399:/Applications/ArmGNUToolchain/13.2.Rel1/arm-none-eabi/arm-none-eabi/include/c++/13.2.1/cmath ****   inline _GLIBCXX_CONSTEXPR float
 400:/Applications/ArmGNUToolchain/13.2.Rel1/arm-none-eabi/arm-none-eabi/include/c++/13.2.1/cmath ****   sin(float __x)
 401:/Applications/ArmGNUToolchain/13.2.Rel1/arm-none-eabi/arm-none-eabi/include/c++/13.2.1/cmath ****   { return __builtin_sinf(__x); }
 105              		.loc 2 401 3
 106              		.cfi_startproc
 107              		@ args = 0, pretend = 0, frame = 8
 108              		@ frame_needed = 1, uses_anonymous_args = 0
 109 0000 80B5     		push	{r7, lr}
 110              		.cfi_def_cfa_offset 8
 111              		.cfi_offset 7, -8
 112              		.cfi_offset 14, -4
 113 0002 82B0     		sub	sp, sp, #8
 114              		.cfi_def_cfa_offset 16
 115 0004 00AF     		add	r7, sp, #0
 116              		.cfi_def_cfa_register 7
 117 0006 87ED010A 		vstr.32	s0, [r7, #4]
ARM GAS  /var/folders/f7/sjskzmt15v119_37bs_xt4r00000gn/T//cc3cAasR.s 			page 10


 118              		.loc 2 401 26
 119 000a 97ED010A 		vldr.32	s0, [r7, #4]
 120 000e FFF7FEFF 		bl	sinf
 121 0012 F0EE407A 		vmov.f32	s15, s0
 122              		.loc 2 401 33
 123 0016 B0EE670A 		vmov.f32	s0, s15
 124 001a 0837     		adds	r7, r7, #8
 125              		.cfi_def_cfa_offset 8
 126 001c BD46     		mov	sp, r7
 127              		.cfi_def_cfa_register 13
 128              		@ sp needed
 129 001e 80BD     		pop	{r7, pc}
 130              		.cfi_endproc
 131              	.LFE192:
 133              		.section	.rodata._ZStL19piecewise_construct,"a"
 134              		.align	2
 137              	_ZStL19piecewise_construct:
 138 0000 00       		.space	1
 139              		.section	.text._ZnwjPv,"axG",%progbits,_ZnwjPv,comdat
 140              		.align	1
 141              		.weak	_ZnwjPv
 142              		.syntax unified
 143              		.thumb
 144              		.thumb_func
 146              	_ZnwjPv:
 147              	.LFB928:
 148              		.file 3 "/Applications/ArmGNUToolchain/13.2.Rel1/arm-none-eabi/arm-none-eabi/include/c++/13.2.1/ne
   1:/Applications/ArmGNUToolchain/13.2.Rel1/arm-none-eabi/arm-none-eabi/include/c++/13.2.1/new **** // The -*- C++ -*- dynamic memory management header.
   2:/Applications/ArmGNUToolchain/13.2.Rel1/arm-none-eabi/arm-none-eabi/include/c++/13.2.1/new **** 
   3:/Applications/ArmGNUToolchain/13.2.Rel1/arm-none-eabi/arm-none-eabi/include/c++/13.2.1/new **** // Copyright (C) 1994-2023 Free Software Foundation, Inc.
   4:/Applications/ArmGNUToolchain/13.2.Rel1/arm-none-eabi/arm-none-eabi/include/c++/13.2.1/new **** 
   5:/Applications/ArmGNUToolchain/13.2.Rel1/arm-none-eabi/arm-none-eabi/include/c++/13.2.1/new **** // This file is part of GCC.
   6:/Applications/ArmGNUToolchain/13.2.Rel1/arm-none-eabi/arm-none-eabi/include/c++/13.2.1/new **** //
   7:/Applications/ArmGNUToolchain/13.2.Rel1/arm-none-eabi/arm-none-eabi/include/c++/13.2.1/new **** // GCC is free software; you can redistribute it and/or modify
   8:/Applications/ArmGNUToolchain/13.2.Rel1/arm-none-eabi/arm-none-eabi/include/c++/13.2.1/new **** // it under the terms of the GNU General Public License as published by
   9:/Applications/ArmGNUToolchain/13.2.Rel1/arm-none-eabi/arm-none-eabi/include/c++/13.2.1/new **** // the Free Software Foundation; either version 3, or (at your option)
  10:/Applications/ArmGNUToolchain/13.2.Rel1/arm-none-eabi/arm-none-eabi/include/c++/13.2.1/new **** // any later version.
  11:/Applications/ArmGNUToolchain/13.2.Rel1/arm-none-eabi/arm-none-eabi/include/c++/13.2.1/new **** // 
  12:/Applications/ArmGNUToolchain/13.2.Rel1/arm-none-eabi/arm-none-eabi/include/c++/13.2.1/new **** // GCC is distributed in the hope that it will be useful,
  13:/Applications/ArmGNUToolchain/13.2.Rel1/arm-none-eabi/arm-none-eabi/include/c++/13.2.1/new **** // but WITHOUT ANY WARRANTY; without even the implied warranty of
  14:/Applications/ArmGNUToolchain/13.2.Rel1/arm-none-eabi/arm-none-eabi/include/c++/13.2.1/new **** // MERCHANTABILITY or FITNESS FOR A PARTICULAR PURPOSE.  See the
  15:/Applications/ArmGNUToolchain/13.2.Rel1/arm-none-eabi/arm-none-eabi/include/c++/13.2.1/new **** // GNU General Public License for more details.
  16:/Applications/ArmGNUToolchain/13.2.Rel1/arm-none-eabi/arm-none-eabi/include/c++/13.2.1/new **** // 
  17:/Applications/ArmGNUToolchain/13.2.Rel1/arm-none-eabi/arm-none-eabi/include/c++/13.2.1/new **** // Under Section 7 of GPL version 3, you are granted additional
  18:/Applications/ArmGNUToolchain/13.2.Rel1/arm-none-eabi/arm-none-eabi/include/c++/13.2.1/new **** // permissions described in the GCC Runtime Library Exception, version
  19:/Applications/ArmGNUToolchain/13.2.Rel1/arm-none-eabi/arm-none-eabi/include/c++/13.2.1/new **** // 3.1, as published by the Free Software Foundation.
  20:/Applications/ArmGNUToolchain/13.2.Rel1/arm-none-eabi/arm-none-eabi/include/c++/13.2.1/new **** 
  21:/Applications/ArmGNUToolchain/13.2.Rel1/arm-none-eabi/arm-none-eabi/include/c++/13.2.1/new **** // You should have received a copy of the GNU General Public License and
  22:/Applications/ArmGNUToolchain/13.2.Rel1/arm-none-eabi/arm-none-eabi/include/c++/13.2.1/new **** // a copy of the GCC Runtime Library Exception along with this program;
  23:/Applications/ArmGNUToolchain/13.2.Rel1/arm-none-eabi/arm-none-eabi/include/c++/13.2.1/new **** // see the files COPYING3 and COPYING.RUNTIME respectively.  If not, see
  24:/Applications/ArmGNUToolchain/13.2.Rel1/arm-none-eabi/arm-none-eabi/include/c++/13.2.1/new **** // <http://www.gnu.org/licenses/>.
  25:/Applications/ArmGNUToolchain/13.2.Rel1/arm-none-eabi/arm-none-eabi/include/c++/13.2.1/new **** 
  26:/Applications/ArmGNUToolchain/13.2.Rel1/arm-none-eabi/arm-none-eabi/include/c++/13.2.1/new **** /** @file new
  27:/Applications/ArmGNUToolchain/13.2.Rel1/arm-none-eabi/arm-none-eabi/include/c++/13.2.1/new ****  *  This is a Standard C++ Library header.
  28:/Applications/ArmGNUToolchain/13.2.Rel1/arm-none-eabi/arm-none-eabi/include/c++/13.2.1/new ****  *
  29:/Applications/ArmGNUToolchain/13.2.Rel1/arm-none-eabi/arm-none-eabi/include/c++/13.2.1/new ****  *  The header @c new defines several functions to manage dynamic memory and
  30:/Applications/ArmGNUToolchain/13.2.Rel1/arm-none-eabi/arm-none-eabi/include/c++/13.2.1/new ****  *  handling memory allocation errors; see
ARM GAS  /var/folders/f7/sjskzmt15v119_37bs_xt4r00000gn/T//cc3cAasR.s 			page 11


  31:/Applications/ArmGNUToolchain/13.2.Rel1/arm-none-eabi/arm-none-eabi/include/c++/13.2.1/new ****  *  https://gcc.gnu.org/onlinedocs/libstdc++/manual/dynamic_memory.html
  32:/Applications/ArmGNUToolchain/13.2.Rel1/arm-none-eabi/arm-none-eabi/include/c++/13.2.1/new ****  *  for more.
  33:/Applications/ArmGNUToolchain/13.2.Rel1/arm-none-eabi/arm-none-eabi/include/c++/13.2.1/new ****  */
  34:/Applications/ArmGNUToolchain/13.2.Rel1/arm-none-eabi/arm-none-eabi/include/c++/13.2.1/new **** 
  35:/Applications/ArmGNUToolchain/13.2.Rel1/arm-none-eabi/arm-none-eabi/include/c++/13.2.1/new **** #ifndef _NEW
  36:/Applications/ArmGNUToolchain/13.2.Rel1/arm-none-eabi/arm-none-eabi/include/c++/13.2.1/new **** #define _NEW
  37:/Applications/ArmGNUToolchain/13.2.Rel1/arm-none-eabi/arm-none-eabi/include/c++/13.2.1/new **** 
  38:/Applications/ArmGNUToolchain/13.2.Rel1/arm-none-eabi/arm-none-eabi/include/c++/13.2.1/new **** #pragma GCC system_header
  39:/Applications/ArmGNUToolchain/13.2.Rel1/arm-none-eabi/arm-none-eabi/include/c++/13.2.1/new **** 
  40:/Applications/ArmGNUToolchain/13.2.Rel1/arm-none-eabi/arm-none-eabi/include/c++/13.2.1/new **** #include <bits/c++config.h>
  41:/Applications/ArmGNUToolchain/13.2.Rel1/arm-none-eabi/arm-none-eabi/include/c++/13.2.1/new **** #include <bits/exception.h>
  42:/Applications/ArmGNUToolchain/13.2.Rel1/arm-none-eabi/arm-none-eabi/include/c++/13.2.1/new **** 
  43:/Applications/ArmGNUToolchain/13.2.Rel1/arm-none-eabi/arm-none-eabi/include/c++/13.2.1/new **** #pragma GCC visibility push(default)
  44:/Applications/ArmGNUToolchain/13.2.Rel1/arm-none-eabi/arm-none-eabi/include/c++/13.2.1/new **** 
  45:/Applications/ArmGNUToolchain/13.2.Rel1/arm-none-eabi/arm-none-eabi/include/c++/13.2.1/new **** extern "C++" {
  46:/Applications/ArmGNUToolchain/13.2.Rel1/arm-none-eabi/arm-none-eabi/include/c++/13.2.1/new **** 
  47:/Applications/ArmGNUToolchain/13.2.Rel1/arm-none-eabi/arm-none-eabi/include/c++/13.2.1/new **** namespace std 
  48:/Applications/ArmGNUToolchain/13.2.Rel1/arm-none-eabi/arm-none-eabi/include/c++/13.2.1/new **** {
  49:/Applications/ArmGNUToolchain/13.2.Rel1/arm-none-eabi/arm-none-eabi/include/c++/13.2.1/new ****   /**
  50:/Applications/ArmGNUToolchain/13.2.Rel1/arm-none-eabi/arm-none-eabi/include/c++/13.2.1/new ****    *  @brief  Exception possibly thrown by @c new.
  51:/Applications/ArmGNUToolchain/13.2.Rel1/arm-none-eabi/arm-none-eabi/include/c++/13.2.1/new ****    *  @ingroup exceptions
  52:/Applications/ArmGNUToolchain/13.2.Rel1/arm-none-eabi/arm-none-eabi/include/c++/13.2.1/new ****    *
  53:/Applications/ArmGNUToolchain/13.2.Rel1/arm-none-eabi/arm-none-eabi/include/c++/13.2.1/new ****    *  @c bad_alloc (or classes derived from it) is used to report allocation
  54:/Applications/ArmGNUToolchain/13.2.Rel1/arm-none-eabi/arm-none-eabi/include/c++/13.2.1/new ****    *  errors from the throwing forms of @c new.  */
  55:/Applications/ArmGNUToolchain/13.2.Rel1/arm-none-eabi/arm-none-eabi/include/c++/13.2.1/new ****   class bad_alloc : public exception
  56:/Applications/ArmGNUToolchain/13.2.Rel1/arm-none-eabi/arm-none-eabi/include/c++/13.2.1/new ****   {
  57:/Applications/ArmGNUToolchain/13.2.Rel1/arm-none-eabi/arm-none-eabi/include/c++/13.2.1/new ****   public:
  58:/Applications/ArmGNUToolchain/13.2.Rel1/arm-none-eabi/arm-none-eabi/include/c++/13.2.1/new ****     bad_alloc() throw() { }
  59:/Applications/ArmGNUToolchain/13.2.Rel1/arm-none-eabi/arm-none-eabi/include/c++/13.2.1/new **** 
  60:/Applications/ArmGNUToolchain/13.2.Rel1/arm-none-eabi/arm-none-eabi/include/c++/13.2.1/new **** #if __cplusplus >= 201103L
  61:/Applications/ArmGNUToolchain/13.2.Rel1/arm-none-eabi/arm-none-eabi/include/c++/13.2.1/new ****     bad_alloc(const bad_alloc&) = default;
  62:/Applications/ArmGNUToolchain/13.2.Rel1/arm-none-eabi/arm-none-eabi/include/c++/13.2.1/new ****     bad_alloc& operator=(const bad_alloc&) = default;
  63:/Applications/ArmGNUToolchain/13.2.Rel1/arm-none-eabi/arm-none-eabi/include/c++/13.2.1/new **** #endif
  64:/Applications/ArmGNUToolchain/13.2.Rel1/arm-none-eabi/arm-none-eabi/include/c++/13.2.1/new **** 
  65:/Applications/ArmGNUToolchain/13.2.Rel1/arm-none-eabi/arm-none-eabi/include/c++/13.2.1/new ****     // This declaration is not useless:
  66:/Applications/ArmGNUToolchain/13.2.Rel1/arm-none-eabi/arm-none-eabi/include/c++/13.2.1/new ****     // http://gcc.gnu.org/onlinedocs/gcc-3.0.2/gcc_6.html#SEC118
  67:/Applications/ArmGNUToolchain/13.2.Rel1/arm-none-eabi/arm-none-eabi/include/c++/13.2.1/new ****     virtual ~bad_alloc() throw();
  68:/Applications/ArmGNUToolchain/13.2.Rel1/arm-none-eabi/arm-none-eabi/include/c++/13.2.1/new **** 
  69:/Applications/ArmGNUToolchain/13.2.Rel1/arm-none-eabi/arm-none-eabi/include/c++/13.2.1/new ****     // See comment in eh_exception.cc.
  70:/Applications/ArmGNUToolchain/13.2.Rel1/arm-none-eabi/arm-none-eabi/include/c++/13.2.1/new ****     virtual const char* what() const throw();
  71:/Applications/ArmGNUToolchain/13.2.Rel1/arm-none-eabi/arm-none-eabi/include/c++/13.2.1/new ****   };
  72:/Applications/ArmGNUToolchain/13.2.Rel1/arm-none-eabi/arm-none-eabi/include/c++/13.2.1/new **** 
  73:/Applications/ArmGNUToolchain/13.2.Rel1/arm-none-eabi/arm-none-eabi/include/c++/13.2.1/new **** #if __cplusplus >= 201103L
  74:/Applications/ArmGNUToolchain/13.2.Rel1/arm-none-eabi/arm-none-eabi/include/c++/13.2.1/new ****   class bad_array_new_length : public bad_alloc
  75:/Applications/ArmGNUToolchain/13.2.Rel1/arm-none-eabi/arm-none-eabi/include/c++/13.2.1/new ****   {
  76:/Applications/ArmGNUToolchain/13.2.Rel1/arm-none-eabi/arm-none-eabi/include/c++/13.2.1/new ****   public:
  77:/Applications/ArmGNUToolchain/13.2.Rel1/arm-none-eabi/arm-none-eabi/include/c++/13.2.1/new ****     bad_array_new_length() throw() { }
  78:/Applications/ArmGNUToolchain/13.2.Rel1/arm-none-eabi/arm-none-eabi/include/c++/13.2.1/new **** 
  79:/Applications/ArmGNUToolchain/13.2.Rel1/arm-none-eabi/arm-none-eabi/include/c++/13.2.1/new ****     // This declaration is not useless:
  80:/Applications/ArmGNUToolchain/13.2.Rel1/arm-none-eabi/arm-none-eabi/include/c++/13.2.1/new ****     // http://gcc.gnu.org/onlinedocs/gcc-3.0.2/gcc_6.html#SEC118
  81:/Applications/ArmGNUToolchain/13.2.Rel1/arm-none-eabi/arm-none-eabi/include/c++/13.2.1/new ****     virtual ~bad_array_new_length() throw();
  82:/Applications/ArmGNUToolchain/13.2.Rel1/arm-none-eabi/arm-none-eabi/include/c++/13.2.1/new **** 
  83:/Applications/ArmGNUToolchain/13.2.Rel1/arm-none-eabi/arm-none-eabi/include/c++/13.2.1/new ****     // See comment in eh_exception.cc.
  84:/Applications/ArmGNUToolchain/13.2.Rel1/arm-none-eabi/arm-none-eabi/include/c++/13.2.1/new ****     virtual const char* what() const throw();
  85:/Applications/ArmGNUToolchain/13.2.Rel1/arm-none-eabi/arm-none-eabi/include/c++/13.2.1/new ****   };
  86:/Applications/ArmGNUToolchain/13.2.Rel1/arm-none-eabi/arm-none-eabi/include/c++/13.2.1/new **** #endif
  87:/Applications/ArmGNUToolchain/13.2.Rel1/arm-none-eabi/arm-none-eabi/include/c++/13.2.1/new **** 
ARM GAS  /var/folders/f7/sjskzmt15v119_37bs_xt4r00000gn/T//cc3cAasR.s 			page 12


  88:/Applications/ArmGNUToolchain/13.2.Rel1/arm-none-eabi/arm-none-eabi/include/c++/13.2.1/new **** #if __cpp_aligned_new
  89:/Applications/ArmGNUToolchain/13.2.Rel1/arm-none-eabi/arm-none-eabi/include/c++/13.2.1/new ****   enum class align_val_t: size_t {};
  90:/Applications/ArmGNUToolchain/13.2.Rel1/arm-none-eabi/arm-none-eabi/include/c++/13.2.1/new **** #endif
  91:/Applications/ArmGNUToolchain/13.2.Rel1/arm-none-eabi/arm-none-eabi/include/c++/13.2.1/new **** 
  92:/Applications/ArmGNUToolchain/13.2.Rel1/arm-none-eabi/arm-none-eabi/include/c++/13.2.1/new ****   struct nothrow_t
  93:/Applications/ArmGNUToolchain/13.2.Rel1/arm-none-eabi/arm-none-eabi/include/c++/13.2.1/new ****   {
  94:/Applications/ArmGNUToolchain/13.2.Rel1/arm-none-eabi/arm-none-eabi/include/c++/13.2.1/new **** #if __cplusplus >= 201103L
  95:/Applications/ArmGNUToolchain/13.2.Rel1/arm-none-eabi/arm-none-eabi/include/c++/13.2.1/new ****     explicit nothrow_t() = default;
  96:/Applications/ArmGNUToolchain/13.2.Rel1/arm-none-eabi/arm-none-eabi/include/c++/13.2.1/new **** #endif
  97:/Applications/ArmGNUToolchain/13.2.Rel1/arm-none-eabi/arm-none-eabi/include/c++/13.2.1/new ****   };
  98:/Applications/ArmGNUToolchain/13.2.Rel1/arm-none-eabi/arm-none-eabi/include/c++/13.2.1/new **** 
  99:/Applications/ArmGNUToolchain/13.2.Rel1/arm-none-eabi/arm-none-eabi/include/c++/13.2.1/new ****   extern const nothrow_t nothrow;
 100:/Applications/ArmGNUToolchain/13.2.Rel1/arm-none-eabi/arm-none-eabi/include/c++/13.2.1/new **** 
 101:/Applications/ArmGNUToolchain/13.2.Rel1/arm-none-eabi/arm-none-eabi/include/c++/13.2.1/new ****   /** If you write your own error handler to be called by @c new, it must
 102:/Applications/ArmGNUToolchain/13.2.Rel1/arm-none-eabi/arm-none-eabi/include/c++/13.2.1/new ****    *  be of this type.  */
 103:/Applications/ArmGNUToolchain/13.2.Rel1/arm-none-eabi/arm-none-eabi/include/c++/13.2.1/new ****   typedef void (*new_handler)();
 104:/Applications/ArmGNUToolchain/13.2.Rel1/arm-none-eabi/arm-none-eabi/include/c++/13.2.1/new **** 
 105:/Applications/ArmGNUToolchain/13.2.Rel1/arm-none-eabi/arm-none-eabi/include/c++/13.2.1/new ****   /// Takes a replacement handler as the argument, returns the
 106:/Applications/ArmGNUToolchain/13.2.Rel1/arm-none-eabi/arm-none-eabi/include/c++/13.2.1/new ****   /// previous handler.
 107:/Applications/ArmGNUToolchain/13.2.Rel1/arm-none-eabi/arm-none-eabi/include/c++/13.2.1/new ****   new_handler set_new_handler(new_handler) throw();
 108:/Applications/ArmGNUToolchain/13.2.Rel1/arm-none-eabi/arm-none-eabi/include/c++/13.2.1/new **** 
 109:/Applications/ArmGNUToolchain/13.2.Rel1/arm-none-eabi/arm-none-eabi/include/c++/13.2.1/new **** #if __cplusplus >= 201103L
 110:/Applications/ArmGNUToolchain/13.2.Rel1/arm-none-eabi/arm-none-eabi/include/c++/13.2.1/new ****   /// Return the current new handler.
 111:/Applications/ArmGNUToolchain/13.2.Rel1/arm-none-eabi/arm-none-eabi/include/c++/13.2.1/new ****   new_handler get_new_handler() noexcept;
 112:/Applications/ArmGNUToolchain/13.2.Rel1/arm-none-eabi/arm-none-eabi/include/c++/13.2.1/new **** #endif
 113:/Applications/ArmGNUToolchain/13.2.Rel1/arm-none-eabi/arm-none-eabi/include/c++/13.2.1/new **** } // namespace std
 114:/Applications/ArmGNUToolchain/13.2.Rel1/arm-none-eabi/arm-none-eabi/include/c++/13.2.1/new **** 
 115:/Applications/ArmGNUToolchain/13.2.Rel1/arm-none-eabi/arm-none-eabi/include/c++/13.2.1/new **** //@{
 116:/Applications/ArmGNUToolchain/13.2.Rel1/arm-none-eabi/arm-none-eabi/include/c++/13.2.1/new **** /** These are replaceable signatures:
 117:/Applications/ArmGNUToolchain/13.2.Rel1/arm-none-eabi/arm-none-eabi/include/c++/13.2.1/new ****  *  - normal single new and delete (no arguments, throw @c bad_alloc on error)
 118:/Applications/ArmGNUToolchain/13.2.Rel1/arm-none-eabi/arm-none-eabi/include/c++/13.2.1/new ****  *  - normal array new and delete (same)
 119:/Applications/ArmGNUToolchain/13.2.Rel1/arm-none-eabi/arm-none-eabi/include/c++/13.2.1/new ****  *  - @c nothrow single new and delete (take a @c nothrow argument, return
 120:/Applications/ArmGNUToolchain/13.2.Rel1/arm-none-eabi/arm-none-eabi/include/c++/13.2.1/new ****  *    @c NULL on error)
 121:/Applications/ArmGNUToolchain/13.2.Rel1/arm-none-eabi/arm-none-eabi/include/c++/13.2.1/new ****  *  - @c nothrow array new and delete (same)
 122:/Applications/ArmGNUToolchain/13.2.Rel1/arm-none-eabi/arm-none-eabi/include/c++/13.2.1/new ****  *
 123:/Applications/ArmGNUToolchain/13.2.Rel1/arm-none-eabi/arm-none-eabi/include/c++/13.2.1/new ****  *  Placement new and delete signatures (take a memory address argument,
 124:/Applications/ArmGNUToolchain/13.2.Rel1/arm-none-eabi/arm-none-eabi/include/c++/13.2.1/new ****  *  does nothing) may not be replaced by a user's program.
 125:/Applications/ArmGNUToolchain/13.2.Rel1/arm-none-eabi/arm-none-eabi/include/c++/13.2.1/new **** */
 126:/Applications/ArmGNUToolchain/13.2.Rel1/arm-none-eabi/arm-none-eabi/include/c++/13.2.1/new **** _GLIBCXX_NODISCARD void* operator new(std::size_t) _GLIBCXX_THROW (std::bad_alloc)
 127:/Applications/ArmGNUToolchain/13.2.Rel1/arm-none-eabi/arm-none-eabi/include/c++/13.2.1/new ****   __attribute__((__externally_visible__));
 128:/Applications/ArmGNUToolchain/13.2.Rel1/arm-none-eabi/arm-none-eabi/include/c++/13.2.1/new **** _GLIBCXX_NODISCARD void* operator new[](std::size_t) _GLIBCXX_THROW (std::bad_alloc)
 129:/Applications/ArmGNUToolchain/13.2.Rel1/arm-none-eabi/arm-none-eabi/include/c++/13.2.1/new ****   __attribute__((__externally_visible__));
 130:/Applications/ArmGNUToolchain/13.2.Rel1/arm-none-eabi/arm-none-eabi/include/c++/13.2.1/new **** void operator delete(void*) _GLIBCXX_USE_NOEXCEPT
 131:/Applications/ArmGNUToolchain/13.2.Rel1/arm-none-eabi/arm-none-eabi/include/c++/13.2.1/new ****   __attribute__((__externally_visible__));
 132:/Applications/ArmGNUToolchain/13.2.Rel1/arm-none-eabi/arm-none-eabi/include/c++/13.2.1/new **** void operator delete[](void*) _GLIBCXX_USE_NOEXCEPT
 133:/Applications/ArmGNUToolchain/13.2.Rel1/arm-none-eabi/arm-none-eabi/include/c++/13.2.1/new ****   __attribute__((__externally_visible__));
 134:/Applications/ArmGNUToolchain/13.2.Rel1/arm-none-eabi/arm-none-eabi/include/c++/13.2.1/new **** #if __cpp_sized_deallocation
 135:/Applications/ArmGNUToolchain/13.2.Rel1/arm-none-eabi/arm-none-eabi/include/c++/13.2.1/new **** void operator delete(void*, std::size_t) _GLIBCXX_USE_NOEXCEPT
 136:/Applications/ArmGNUToolchain/13.2.Rel1/arm-none-eabi/arm-none-eabi/include/c++/13.2.1/new ****   __attribute__((__externally_visible__));
 137:/Applications/ArmGNUToolchain/13.2.Rel1/arm-none-eabi/arm-none-eabi/include/c++/13.2.1/new **** void operator delete[](void*, std::size_t) _GLIBCXX_USE_NOEXCEPT
 138:/Applications/ArmGNUToolchain/13.2.Rel1/arm-none-eabi/arm-none-eabi/include/c++/13.2.1/new ****   __attribute__((__externally_visible__));
 139:/Applications/ArmGNUToolchain/13.2.Rel1/arm-none-eabi/arm-none-eabi/include/c++/13.2.1/new **** #endif
 140:/Applications/ArmGNUToolchain/13.2.Rel1/arm-none-eabi/arm-none-eabi/include/c++/13.2.1/new **** _GLIBCXX_NODISCARD void* operator new(std::size_t, const std::nothrow_t&) _GLIBCXX_USE_NOEXCEPT
 141:/Applications/ArmGNUToolchain/13.2.Rel1/arm-none-eabi/arm-none-eabi/include/c++/13.2.1/new ****   __attribute__((__externally_visible__, __alloc_size__ (1), __malloc__));
 142:/Applications/ArmGNUToolchain/13.2.Rel1/arm-none-eabi/arm-none-eabi/include/c++/13.2.1/new **** _GLIBCXX_NODISCARD void* operator new[](std::size_t, const std::nothrow_t&) _GLIBCXX_USE_NOEXCEPT
 143:/Applications/ArmGNUToolchain/13.2.Rel1/arm-none-eabi/arm-none-eabi/include/c++/13.2.1/new ****   __attribute__((__externally_visible__, __alloc_size__ (1), __malloc__));
 144:/Applications/ArmGNUToolchain/13.2.Rel1/arm-none-eabi/arm-none-eabi/include/c++/13.2.1/new **** void operator delete(void*, const std::nothrow_t&) _GLIBCXX_USE_NOEXCEPT
ARM GAS  /var/folders/f7/sjskzmt15v119_37bs_xt4r00000gn/T//cc3cAasR.s 			page 13


 145:/Applications/ArmGNUToolchain/13.2.Rel1/arm-none-eabi/arm-none-eabi/include/c++/13.2.1/new ****   __attribute__((__externally_visible__));
 146:/Applications/ArmGNUToolchain/13.2.Rel1/arm-none-eabi/arm-none-eabi/include/c++/13.2.1/new **** void operator delete[](void*, const std::nothrow_t&) _GLIBCXX_USE_NOEXCEPT
 147:/Applications/ArmGNUToolchain/13.2.Rel1/arm-none-eabi/arm-none-eabi/include/c++/13.2.1/new ****   __attribute__((__externally_visible__));
 148:/Applications/ArmGNUToolchain/13.2.Rel1/arm-none-eabi/arm-none-eabi/include/c++/13.2.1/new **** #if __cpp_aligned_new
 149:/Applications/ArmGNUToolchain/13.2.Rel1/arm-none-eabi/arm-none-eabi/include/c++/13.2.1/new **** _GLIBCXX_NODISCARD void* operator new(std::size_t, std::align_val_t)
 150:/Applications/ArmGNUToolchain/13.2.Rel1/arm-none-eabi/arm-none-eabi/include/c++/13.2.1/new ****   __attribute__((__externally_visible__, __alloc_size__ (1), __malloc__));
 151:/Applications/ArmGNUToolchain/13.2.Rel1/arm-none-eabi/arm-none-eabi/include/c++/13.2.1/new **** _GLIBCXX_NODISCARD void* operator new(std::size_t, std::align_val_t, const std::nothrow_t&)
 152:/Applications/ArmGNUToolchain/13.2.Rel1/arm-none-eabi/arm-none-eabi/include/c++/13.2.1/new ****   _GLIBCXX_USE_NOEXCEPT __attribute__((__externally_visible__, __alloc_size__ (1), __malloc__));
 153:/Applications/ArmGNUToolchain/13.2.Rel1/arm-none-eabi/arm-none-eabi/include/c++/13.2.1/new **** void operator delete(void*, std::align_val_t)
 154:/Applications/ArmGNUToolchain/13.2.Rel1/arm-none-eabi/arm-none-eabi/include/c++/13.2.1/new ****   _GLIBCXX_USE_NOEXCEPT __attribute__((__externally_visible__));
 155:/Applications/ArmGNUToolchain/13.2.Rel1/arm-none-eabi/arm-none-eabi/include/c++/13.2.1/new **** void operator delete(void*, std::align_val_t, const std::nothrow_t&)
 156:/Applications/ArmGNUToolchain/13.2.Rel1/arm-none-eabi/arm-none-eabi/include/c++/13.2.1/new ****   _GLIBCXX_USE_NOEXCEPT __attribute__((__externally_visible__));
 157:/Applications/ArmGNUToolchain/13.2.Rel1/arm-none-eabi/arm-none-eabi/include/c++/13.2.1/new **** _GLIBCXX_NODISCARD void* operator new[](std::size_t, std::align_val_t)
 158:/Applications/ArmGNUToolchain/13.2.Rel1/arm-none-eabi/arm-none-eabi/include/c++/13.2.1/new ****   __attribute__((__externally_visible__, __alloc_size__ (1), __malloc__));
 159:/Applications/ArmGNUToolchain/13.2.Rel1/arm-none-eabi/arm-none-eabi/include/c++/13.2.1/new **** _GLIBCXX_NODISCARD void* operator new[](std::size_t, std::align_val_t, const std::nothrow_t&)
 160:/Applications/ArmGNUToolchain/13.2.Rel1/arm-none-eabi/arm-none-eabi/include/c++/13.2.1/new ****   _GLIBCXX_USE_NOEXCEPT __attribute__((__externally_visible__, __alloc_size__ (1), __malloc__));
 161:/Applications/ArmGNUToolchain/13.2.Rel1/arm-none-eabi/arm-none-eabi/include/c++/13.2.1/new **** void operator delete[](void*, std::align_val_t)
 162:/Applications/ArmGNUToolchain/13.2.Rel1/arm-none-eabi/arm-none-eabi/include/c++/13.2.1/new ****   _GLIBCXX_USE_NOEXCEPT __attribute__((__externally_visible__));
 163:/Applications/ArmGNUToolchain/13.2.Rel1/arm-none-eabi/arm-none-eabi/include/c++/13.2.1/new **** void operator delete[](void*, std::align_val_t, const std::nothrow_t&)
 164:/Applications/ArmGNUToolchain/13.2.Rel1/arm-none-eabi/arm-none-eabi/include/c++/13.2.1/new ****   _GLIBCXX_USE_NOEXCEPT __attribute__((__externally_visible__));
 165:/Applications/ArmGNUToolchain/13.2.Rel1/arm-none-eabi/arm-none-eabi/include/c++/13.2.1/new **** #if __cpp_sized_deallocation
 166:/Applications/ArmGNUToolchain/13.2.Rel1/arm-none-eabi/arm-none-eabi/include/c++/13.2.1/new **** void operator delete(void*, std::size_t, std::align_val_t)
 167:/Applications/ArmGNUToolchain/13.2.Rel1/arm-none-eabi/arm-none-eabi/include/c++/13.2.1/new ****   _GLIBCXX_USE_NOEXCEPT __attribute__((__externally_visible__));
 168:/Applications/ArmGNUToolchain/13.2.Rel1/arm-none-eabi/arm-none-eabi/include/c++/13.2.1/new **** void operator delete[](void*, std::size_t, std::align_val_t)
 169:/Applications/ArmGNUToolchain/13.2.Rel1/arm-none-eabi/arm-none-eabi/include/c++/13.2.1/new ****   _GLIBCXX_USE_NOEXCEPT __attribute__((__externally_visible__));
 170:/Applications/ArmGNUToolchain/13.2.Rel1/arm-none-eabi/arm-none-eabi/include/c++/13.2.1/new **** #endif // __cpp_sized_deallocation
 171:/Applications/ArmGNUToolchain/13.2.Rel1/arm-none-eabi/arm-none-eabi/include/c++/13.2.1/new **** #endif // __cpp_aligned_new
 172:/Applications/ArmGNUToolchain/13.2.Rel1/arm-none-eabi/arm-none-eabi/include/c++/13.2.1/new **** 
 173:/Applications/ArmGNUToolchain/13.2.Rel1/arm-none-eabi/arm-none-eabi/include/c++/13.2.1/new **** // Default placement versions of operator new.
 174:/Applications/ArmGNUToolchain/13.2.Rel1/arm-none-eabi/arm-none-eabi/include/c++/13.2.1/new **** _GLIBCXX_NODISCARD inline void* operator new(std::size_t, void* __p) _GLIBCXX_USE_NOEXCEPT
 175:/Applications/ArmGNUToolchain/13.2.Rel1/arm-none-eabi/arm-none-eabi/include/c++/13.2.1/new **** { return __p; }
 149              		.loc 3 175 1
 150              		.cfi_startproc
 151              		@ args = 0, pretend = 0, frame = 8
 152              		@ frame_needed = 1, uses_anonymous_args = 0
 153              		@ link register save eliminated.
 154 0000 80B4     		push	{r7}
 155              		.cfi_def_cfa_offset 4
 156              		.cfi_offset 7, -4
 157 0002 83B0     		sub	sp, sp, #12
 158              		.cfi_def_cfa_offset 16
 159 0004 00AF     		add	r7, sp, #0
 160              		.cfi_def_cfa_register 7
 161 0006 7860     		str	r0, [r7, #4]
 162 0008 3960     		str	r1, [r7]
 163              		.loc 3 175 10
 164 000a 3B68     		ldr	r3, [r7]
 165              		.loc 3 175 15
 166 000c 1846     		mov	r0, r3
 167 000e 0C37     		adds	r7, r7, #12
 168              		.cfi_def_cfa_offset 4
 169 0010 BD46     		mov	sp, r7
 170              		.cfi_def_cfa_register 13
 171              		@ sp needed
 172 0012 5DF8047B 		ldr	r7, [sp], #4
 173              		.cfi_restore 7
 174              		.cfi_def_cfa_offset 0
ARM GAS  /var/folders/f7/sjskzmt15v119_37bs_xt4r00000gn/T//cc3cAasR.s 			page 14


 175 0016 7047     		bx	lr
 176              		.cfi_endproc
 177              	.LFE928:
 179              		.section	.text._ZSt16__deque_buf_sizej,"axG",%progbits,_ZSt16__deque_buf_sizej,comdat
 180              		.align	1
 181              		.weak	_ZSt16__deque_buf_sizej
 182              		.syntax unified
 183              		.thumb
 184              		.thumb_func
 186              	_ZSt16__deque_buf_sizej:
 187              	.LFB1076:
 188              		.file 4 "/Applications/ArmGNUToolchain/13.2.Rel1/arm-none-eabi/arm-none-eabi/include/c++/13.2.1/bi
   1:/Applications/ArmGNUToolchain/13.2.Rel1/arm-none-eabi/arm-none-eabi/include/c++/13.2.1/bits/stl_deque.h **** // Deque implementation -*- C++ -*-
   2:/Applications/ArmGNUToolchain/13.2.Rel1/arm-none-eabi/arm-none-eabi/include/c++/13.2.1/bits/stl_deque.h **** 
   3:/Applications/ArmGNUToolchain/13.2.Rel1/arm-none-eabi/arm-none-eabi/include/c++/13.2.1/bits/stl_deque.h **** // Copyright (C) 2001-2023 Free Software Foundation, Inc.
   4:/Applications/ArmGNUToolchain/13.2.Rel1/arm-none-eabi/arm-none-eabi/include/c++/13.2.1/bits/stl_deque.h **** //
   5:/Applications/ArmGNUToolchain/13.2.Rel1/arm-none-eabi/arm-none-eabi/include/c++/13.2.1/bits/stl_deque.h **** // This file is part of the GNU ISO C++ Library.  This library is free
   6:/Applications/ArmGNUToolchain/13.2.Rel1/arm-none-eabi/arm-none-eabi/include/c++/13.2.1/bits/stl_deque.h **** // software; you can redistribute it and/or modify it under the
   7:/Applications/ArmGNUToolchain/13.2.Rel1/arm-none-eabi/arm-none-eabi/include/c++/13.2.1/bits/stl_deque.h **** // terms of the GNU General Public License as published by the
   8:/Applications/ArmGNUToolchain/13.2.Rel1/arm-none-eabi/arm-none-eabi/include/c++/13.2.1/bits/stl_deque.h **** // Free Software Foundation; either version 3, or (at your option)
   9:/Applications/ArmGNUToolchain/13.2.Rel1/arm-none-eabi/arm-none-eabi/include/c++/13.2.1/bits/stl_deque.h **** // any later version.
  10:/Applications/ArmGNUToolchain/13.2.Rel1/arm-none-eabi/arm-none-eabi/include/c++/13.2.1/bits/stl_deque.h **** 
  11:/Applications/ArmGNUToolchain/13.2.Rel1/arm-none-eabi/arm-none-eabi/include/c++/13.2.1/bits/stl_deque.h **** // This library is distributed in the hope that it will be useful,
  12:/Applications/ArmGNUToolchain/13.2.Rel1/arm-none-eabi/arm-none-eabi/include/c++/13.2.1/bits/stl_deque.h **** // but WITHOUT ANY WARRANTY; without even the implied warranty of
  13:/Applications/ArmGNUToolchain/13.2.Rel1/arm-none-eabi/arm-none-eabi/include/c++/13.2.1/bits/stl_deque.h **** // MERCHANTABILITY or FITNESS FOR A PARTICULAR PURPOSE.  See the
  14:/Applications/ArmGNUToolchain/13.2.Rel1/arm-none-eabi/arm-none-eabi/include/c++/13.2.1/bits/stl_deque.h **** // GNU General Public License for more details.
  15:/Applications/ArmGNUToolchain/13.2.Rel1/arm-none-eabi/arm-none-eabi/include/c++/13.2.1/bits/stl_deque.h **** 
  16:/Applications/ArmGNUToolchain/13.2.Rel1/arm-none-eabi/arm-none-eabi/include/c++/13.2.1/bits/stl_deque.h **** // Under Section 7 of GPL version 3, you are granted additional
  17:/Applications/ArmGNUToolchain/13.2.Rel1/arm-none-eabi/arm-none-eabi/include/c++/13.2.1/bits/stl_deque.h **** // permissions described in the GCC Runtime Library Exception, version
  18:/Applications/ArmGNUToolchain/13.2.Rel1/arm-none-eabi/arm-none-eabi/include/c++/13.2.1/bits/stl_deque.h **** // 3.1, as published by the Free Software Foundation.
  19:/Applications/ArmGNUToolchain/13.2.Rel1/arm-none-eabi/arm-none-eabi/include/c++/13.2.1/bits/stl_deque.h **** 
  20:/Applications/ArmGNUToolchain/13.2.Rel1/arm-none-eabi/arm-none-eabi/include/c++/13.2.1/bits/stl_deque.h **** // You should have received a copy of the GNU General Public License and
  21:/Applications/ArmGNUToolchain/13.2.Rel1/arm-none-eabi/arm-none-eabi/include/c++/13.2.1/bits/stl_deque.h **** // a copy of the GCC Runtime Library Exception along with this program;
  22:/Applications/ArmGNUToolchain/13.2.Rel1/arm-none-eabi/arm-none-eabi/include/c++/13.2.1/bits/stl_deque.h **** // see the files COPYING3 and COPYING.RUNTIME respectively.  If not, see
  23:/Applications/ArmGNUToolchain/13.2.Rel1/arm-none-eabi/arm-none-eabi/include/c++/13.2.1/bits/stl_deque.h **** // <http://www.gnu.org/licenses/>.
  24:/Applications/ArmGNUToolchain/13.2.Rel1/arm-none-eabi/arm-none-eabi/include/c++/13.2.1/bits/stl_deque.h **** 
  25:/Applications/ArmGNUToolchain/13.2.Rel1/arm-none-eabi/arm-none-eabi/include/c++/13.2.1/bits/stl_deque.h **** /*
  26:/Applications/ArmGNUToolchain/13.2.Rel1/arm-none-eabi/arm-none-eabi/include/c++/13.2.1/bits/stl_deque.h ****  *
  27:/Applications/ArmGNUToolchain/13.2.Rel1/arm-none-eabi/arm-none-eabi/include/c++/13.2.1/bits/stl_deque.h ****  * Copyright (c) 1994
  28:/Applications/ArmGNUToolchain/13.2.Rel1/arm-none-eabi/arm-none-eabi/include/c++/13.2.1/bits/stl_deque.h ****  * Hewlett-Packard Company
  29:/Applications/ArmGNUToolchain/13.2.Rel1/arm-none-eabi/arm-none-eabi/include/c++/13.2.1/bits/stl_deque.h ****  *
  30:/Applications/ArmGNUToolchain/13.2.Rel1/arm-none-eabi/arm-none-eabi/include/c++/13.2.1/bits/stl_deque.h ****  * Permission to use, copy, modify, distribute and sell this software
  31:/Applications/ArmGNUToolchain/13.2.Rel1/arm-none-eabi/arm-none-eabi/include/c++/13.2.1/bits/stl_deque.h ****  * and its documentation for any purpose is hereby granted without fee,
  32:/Applications/ArmGNUToolchain/13.2.Rel1/arm-none-eabi/arm-none-eabi/include/c++/13.2.1/bits/stl_deque.h ****  * provided that the above copyright notice appear in all copies and
  33:/Applications/ArmGNUToolchain/13.2.Rel1/arm-none-eabi/arm-none-eabi/include/c++/13.2.1/bits/stl_deque.h ****  * that both that copyright notice and this permission notice appear
  34:/Applications/ArmGNUToolchain/13.2.Rel1/arm-none-eabi/arm-none-eabi/include/c++/13.2.1/bits/stl_deque.h ****  * in supporting documentation.  Hewlett-Packard Company makes no
  35:/Applications/ArmGNUToolchain/13.2.Rel1/arm-none-eabi/arm-none-eabi/include/c++/13.2.1/bits/stl_deque.h ****  * representations about the suitability of this software for any
  36:/Applications/ArmGNUToolchain/13.2.Rel1/arm-none-eabi/arm-none-eabi/include/c++/13.2.1/bits/stl_deque.h ****  * purpose.  It is provided "as is" without express or implied warranty.
  37:/Applications/ArmGNUToolchain/13.2.Rel1/arm-none-eabi/arm-none-eabi/include/c++/13.2.1/bits/stl_deque.h ****  *
  38:/Applications/ArmGNUToolchain/13.2.Rel1/arm-none-eabi/arm-none-eabi/include/c++/13.2.1/bits/stl_deque.h ****  *
  39:/Applications/ArmGNUToolchain/13.2.Rel1/arm-none-eabi/arm-none-eabi/include/c++/13.2.1/bits/stl_deque.h ****  * Copyright (c) 1997
  40:/Applications/ArmGNUToolchain/13.2.Rel1/arm-none-eabi/arm-none-eabi/include/c++/13.2.1/bits/stl_deque.h ****  * Silicon Graphics Computer Systems, Inc.
  41:/Applications/ArmGNUToolchain/13.2.Rel1/arm-none-eabi/arm-none-eabi/include/c++/13.2.1/bits/stl_deque.h ****  *
  42:/Applications/ArmGNUToolchain/13.2.Rel1/arm-none-eabi/arm-none-eabi/include/c++/13.2.1/bits/stl_deque.h ****  * Permission to use, copy, modify, distribute and sell this software
  43:/Applications/ArmGNUToolchain/13.2.Rel1/arm-none-eabi/arm-none-eabi/include/c++/13.2.1/bits/stl_deque.h ****  * and its documentation for any purpose is hereby granted without fee,
  44:/Applications/ArmGNUToolchain/13.2.Rel1/arm-none-eabi/arm-none-eabi/include/c++/13.2.1/bits/stl_deque.h ****  * provided that the above copyright notice appear in all copies and
  45:/Applications/ArmGNUToolchain/13.2.Rel1/arm-none-eabi/arm-none-eabi/include/c++/13.2.1/bits/stl_deque.h ****  * that both that copyright notice and this permission notice appear
ARM GAS  /var/folders/f7/sjskzmt15v119_37bs_xt4r00000gn/T//cc3cAasR.s 			page 15


  46:/Applications/ArmGNUToolchain/13.2.Rel1/arm-none-eabi/arm-none-eabi/include/c++/13.2.1/bits/stl_deque.h ****  * in supporting documentation.  Silicon Graphics makes no
  47:/Applications/ArmGNUToolchain/13.2.Rel1/arm-none-eabi/arm-none-eabi/include/c++/13.2.1/bits/stl_deque.h ****  * representations about the suitability of this software for any
  48:/Applications/ArmGNUToolchain/13.2.Rel1/arm-none-eabi/arm-none-eabi/include/c++/13.2.1/bits/stl_deque.h ****  * purpose.  It is provided "as is" without express or implied warranty.
  49:/Applications/ArmGNUToolchain/13.2.Rel1/arm-none-eabi/arm-none-eabi/include/c++/13.2.1/bits/stl_deque.h ****  */
  50:/Applications/ArmGNUToolchain/13.2.Rel1/arm-none-eabi/arm-none-eabi/include/c++/13.2.1/bits/stl_deque.h **** 
  51:/Applications/ArmGNUToolchain/13.2.Rel1/arm-none-eabi/arm-none-eabi/include/c++/13.2.1/bits/stl_deque.h **** /** @file bits/stl_deque.h
  52:/Applications/ArmGNUToolchain/13.2.Rel1/arm-none-eabi/arm-none-eabi/include/c++/13.2.1/bits/stl_deque.h ****  *  This is an internal header file, included by other library headers.
  53:/Applications/ArmGNUToolchain/13.2.Rel1/arm-none-eabi/arm-none-eabi/include/c++/13.2.1/bits/stl_deque.h ****  *  Do not attempt to use it directly. @headername{deque}
  54:/Applications/ArmGNUToolchain/13.2.Rel1/arm-none-eabi/arm-none-eabi/include/c++/13.2.1/bits/stl_deque.h ****  */
  55:/Applications/ArmGNUToolchain/13.2.Rel1/arm-none-eabi/arm-none-eabi/include/c++/13.2.1/bits/stl_deque.h **** 
  56:/Applications/ArmGNUToolchain/13.2.Rel1/arm-none-eabi/arm-none-eabi/include/c++/13.2.1/bits/stl_deque.h **** #ifndef _STL_DEQUE_H
  57:/Applications/ArmGNUToolchain/13.2.Rel1/arm-none-eabi/arm-none-eabi/include/c++/13.2.1/bits/stl_deque.h **** #define _STL_DEQUE_H 1
  58:/Applications/ArmGNUToolchain/13.2.Rel1/arm-none-eabi/arm-none-eabi/include/c++/13.2.1/bits/stl_deque.h **** 
  59:/Applications/ArmGNUToolchain/13.2.Rel1/arm-none-eabi/arm-none-eabi/include/c++/13.2.1/bits/stl_deque.h **** #include <bits/concept_check.h>
  60:/Applications/ArmGNUToolchain/13.2.Rel1/arm-none-eabi/arm-none-eabi/include/c++/13.2.1/bits/stl_deque.h **** #include <bits/stl_iterator_base_types.h>
  61:/Applications/ArmGNUToolchain/13.2.Rel1/arm-none-eabi/arm-none-eabi/include/c++/13.2.1/bits/stl_deque.h **** #include <bits/stl_iterator_base_funcs.h>
  62:/Applications/ArmGNUToolchain/13.2.Rel1/arm-none-eabi/arm-none-eabi/include/c++/13.2.1/bits/stl_deque.h **** #if __cplusplus >= 201103L
  63:/Applications/ArmGNUToolchain/13.2.Rel1/arm-none-eabi/arm-none-eabi/include/c++/13.2.1/bits/stl_deque.h **** #include <initializer_list>
  64:/Applications/ArmGNUToolchain/13.2.Rel1/arm-none-eabi/arm-none-eabi/include/c++/13.2.1/bits/stl_deque.h **** #include <bits/stl_uninitialized.h> // for __is_bitwise_relocatable
  65:/Applications/ArmGNUToolchain/13.2.Rel1/arm-none-eabi/arm-none-eabi/include/c++/13.2.1/bits/stl_deque.h **** #endif
  66:/Applications/ArmGNUToolchain/13.2.Rel1/arm-none-eabi/arm-none-eabi/include/c++/13.2.1/bits/stl_deque.h **** #if __cplusplus > 201703L
  67:/Applications/ArmGNUToolchain/13.2.Rel1/arm-none-eabi/arm-none-eabi/include/c++/13.2.1/bits/stl_deque.h **** # include <compare>
  68:/Applications/ArmGNUToolchain/13.2.Rel1/arm-none-eabi/arm-none-eabi/include/c++/13.2.1/bits/stl_deque.h **** #endif
  69:/Applications/ArmGNUToolchain/13.2.Rel1/arm-none-eabi/arm-none-eabi/include/c++/13.2.1/bits/stl_deque.h **** 
  70:/Applications/ArmGNUToolchain/13.2.Rel1/arm-none-eabi/arm-none-eabi/include/c++/13.2.1/bits/stl_deque.h **** #include <debug/assertions.h>
  71:/Applications/ArmGNUToolchain/13.2.Rel1/arm-none-eabi/arm-none-eabi/include/c++/13.2.1/bits/stl_deque.h **** 
  72:/Applications/ArmGNUToolchain/13.2.Rel1/arm-none-eabi/arm-none-eabi/include/c++/13.2.1/bits/stl_deque.h **** namespace std _GLIBCXX_VISIBILITY(default)
  73:/Applications/ArmGNUToolchain/13.2.Rel1/arm-none-eabi/arm-none-eabi/include/c++/13.2.1/bits/stl_deque.h **** {
  74:/Applications/ArmGNUToolchain/13.2.Rel1/arm-none-eabi/arm-none-eabi/include/c++/13.2.1/bits/stl_deque.h **** _GLIBCXX_BEGIN_NAMESPACE_VERSION
  75:/Applications/ArmGNUToolchain/13.2.Rel1/arm-none-eabi/arm-none-eabi/include/c++/13.2.1/bits/stl_deque.h **** _GLIBCXX_BEGIN_NAMESPACE_CONTAINER
  76:/Applications/ArmGNUToolchain/13.2.Rel1/arm-none-eabi/arm-none-eabi/include/c++/13.2.1/bits/stl_deque.h **** 
  77:/Applications/ArmGNUToolchain/13.2.Rel1/arm-none-eabi/arm-none-eabi/include/c++/13.2.1/bits/stl_deque.h ****   /**
  78:/Applications/ArmGNUToolchain/13.2.Rel1/arm-none-eabi/arm-none-eabi/include/c++/13.2.1/bits/stl_deque.h ****    *  @brief This function controls the size of memory nodes.
  79:/Applications/ArmGNUToolchain/13.2.Rel1/arm-none-eabi/arm-none-eabi/include/c++/13.2.1/bits/stl_deque.h ****    *  @param  __size  The size of an element.
  80:/Applications/ArmGNUToolchain/13.2.Rel1/arm-none-eabi/arm-none-eabi/include/c++/13.2.1/bits/stl_deque.h ****    *  @return   The number (not byte size) of elements per node.
  81:/Applications/ArmGNUToolchain/13.2.Rel1/arm-none-eabi/arm-none-eabi/include/c++/13.2.1/bits/stl_deque.h ****    *
  82:/Applications/ArmGNUToolchain/13.2.Rel1/arm-none-eabi/arm-none-eabi/include/c++/13.2.1/bits/stl_deque.h ****    *  This function started off as a compiler kludge from SGI, but
  83:/Applications/ArmGNUToolchain/13.2.Rel1/arm-none-eabi/arm-none-eabi/include/c++/13.2.1/bits/stl_deque.h ****    *  seems to be a useful wrapper around a repeated constant
  84:/Applications/ArmGNUToolchain/13.2.Rel1/arm-none-eabi/arm-none-eabi/include/c++/13.2.1/bits/stl_deque.h ****    *  expression.  The @b 512 is tunable (and no other code needs to
  85:/Applications/ArmGNUToolchain/13.2.Rel1/arm-none-eabi/arm-none-eabi/include/c++/13.2.1/bits/stl_deque.h ****    *  change), but no investigation has been done since inheriting the
  86:/Applications/ArmGNUToolchain/13.2.Rel1/arm-none-eabi/arm-none-eabi/include/c++/13.2.1/bits/stl_deque.h ****    *  SGI code.  Touch _GLIBCXX_DEQUE_BUF_SIZE only if you know what
  87:/Applications/ArmGNUToolchain/13.2.Rel1/arm-none-eabi/arm-none-eabi/include/c++/13.2.1/bits/stl_deque.h ****    *  you are doing, however: changing it breaks the binary
  88:/Applications/ArmGNUToolchain/13.2.Rel1/arm-none-eabi/arm-none-eabi/include/c++/13.2.1/bits/stl_deque.h ****    *  compatibility!!
  89:/Applications/ArmGNUToolchain/13.2.Rel1/arm-none-eabi/arm-none-eabi/include/c++/13.2.1/bits/stl_deque.h ****   */
  90:/Applications/ArmGNUToolchain/13.2.Rel1/arm-none-eabi/arm-none-eabi/include/c++/13.2.1/bits/stl_deque.h **** 
  91:/Applications/ArmGNUToolchain/13.2.Rel1/arm-none-eabi/arm-none-eabi/include/c++/13.2.1/bits/stl_deque.h **** #ifndef _GLIBCXX_DEQUE_BUF_SIZE
  92:/Applications/ArmGNUToolchain/13.2.Rel1/arm-none-eabi/arm-none-eabi/include/c++/13.2.1/bits/stl_deque.h **** #define _GLIBCXX_DEQUE_BUF_SIZE 512
  93:/Applications/ArmGNUToolchain/13.2.Rel1/arm-none-eabi/arm-none-eabi/include/c++/13.2.1/bits/stl_deque.h **** #endif
  94:/Applications/ArmGNUToolchain/13.2.Rel1/arm-none-eabi/arm-none-eabi/include/c++/13.2.1/bits/stl_deque.h **** 
  95:/Applications/ArmGNUToolchain/13.2.Rel1/arm-none-eabi/arm-none-eabi/include/c++/13.2.1/bits/stl_deque.h ****   _GLIBCXX_CONSTEXPR inline size_t
  96:/Applications/ArmGNUToolchain/13.2.Rel1/arm-none-eabi/arm-none-eabi/include/c++/13.2.1/bits/stl_deque.h ****   __deque_buf_size(size_t __size)
  97:/Applications/ArmGNUToolchain/13.2.Rel1/arm-none-eabi/arm-none-eabi/include/c++/13.2.1/bits/stl_deque.h ****   { return (__size < _GLIBCXX_DEQUE_BUF_SIZE
 189              		.loc 4 97 3
 190              		.cfi_startproc
 191              		@ args = 0, pretend = 0, frame = 8
 192              		@ frame_needed = 1, uses_anonymous_args = 0
 193              		@ link register save eliminated.
ARM GAS  /var/folders/f7/sjskzmt15v119_37bs_xt4r00000gn/T//cc3cAasR.s 			page 16


 194 0000 80B4     		push	{r7}
 195              		.cfi_def_cfa_offset 4
 196              		.cfi_offset 7, -4
 197 0002 83B0     		sub	sp, sp, #12
 198              		.cfi_def_cfa_offset 16
 199 0004 00AF     		add	r7, sp, #0
 200              		.cfi_def_cfa_register 7
 201 0006 7860     		str	r0, [r7, #4]
  98:/Applications/ArmGNUToolchain/13.2.Rel1/arm-none-eabi/arm-none-eabi/include/c++/13.2.1/bits/stl_deque.h **** 	    ? size_t(_GLIBCXX_DEQUE_BUF_SIZE / __size) : size_t(1)); }
 202              		.loc 4 98 6
 203 0008 7B68     		ldr	r3, [r7, #4]
 204 000a B3F5007F 		cmp	r3, #512
 205 000e 05D2     		bcs	.L10
 206              		.loc 4 98 6 is_stmt 0 discriminator 1
 207 0010 4FF40072 		mov	r2, #512
 208 0014 7B68     		ldr	r3, [r7, #4]
 209 0016 B2FBF3F3 		udiv	r3, r2, r3
 210              		.loc 4 98 60 is_stmt 1
 211 001a 00E0     		b	.L12
 212              	.L10:
 213              		.loc 4 98 6 discriminator 2
 214 001c 0123     		movs	r3, #1
 215              	.L12:
 216              		.loc 4 98 63
 217 001e 1846     		mov	r0, r3
 218 0020 0C37     		adds	r7, r7, #12
 219              		.cfi_def_cfa_offset 4
 220 0022 BD46     		mov	sp, r7
 221              		.cfi_def_cfa_register 13
 222              		@ sp needed
 223 0024 5DF8047B 		ldr	r7, [sp], #4
 224              		.cfi_restore 7
 225              		.cfi_def_cfa_offset 0
 226 0028 7047     		bx	lr
 227              		.cfi_endproc
 228              	.LFE1076:
 230              		.section	.text._ZN5daisy6SystemC2Ev,"axG",%progbits,_ZN5daisy6SystemC5Ev,comdat
 231              		.align	1
 232              		.weak	_ZN5daisy6SystemC2Ev
 233              		.syntax unified
 234              		.thumb
 235              		.thumb_func
 237              	_ZN5daisy6SystemC2Ev:
 238              	.LFB1434:
 239              		.file 5 "../../../../libs/libDaisy/src/sys/system.h"
   1:../../../../libs/libDaisy/src/sys/system.h **** #ifndef DSY_SYSTEM_H
   2:../../../../libs/libDaisy/src/sys/system.h **** #define DSY_SYSTEM_H
   3:../../../../libs/libDaisy/src/sys/system.h **** 
   4:../../../../libs/libDaisy/src/sys/system.h **** #ifndef UNIT_TEST // for unit tests, a dummy implementation is provided below
   5:../../../../libs/libDaisy/src/sys/system.h **** 
   6:../../../../libs/libDaisy/src/sys/system.h **** #include <cstdint>
   7:../../../../libs/libDaisy/src/sys/system.h **** #include "per/tim.h"
   8:../../../../libs/libDaisy/src/sys/system.h **** 
   9:../../../../libs/libDaisy/src/sys/system.h **** namespace daisy
  10:../../../../libs/libDaisy/src/sys/system.h **** {
  11:../../../../libs/libDaisy/src/sys/system.h **** /** A handle for interacting with the Core System. 
  12:../../../../libs/libDaisy/src/sys/system.h ****  ** This includes the Clock tree, MPU, global DMA initialization,
ARM GAS  /var/folders/f7/sjskzmt15v119_37bs_xt4r00000gn/T//cc3cAasR.s 			page 17


  13:../../../../libs/libDaisy/src/sys/system.h ****  ** cache handling, and any other necessary global initiailzation
  14:../../../../libs/libDaisy/src/sys/system.h ****  **
  15:../../../../libs/libDaisy/src/sys/system.h ****  ** @author shensley
  16:../../../../libs/libDaisy/src/sys/system.h ****  ** @addtogroup system
  17:../../../../libs/libDaisy/src/sys/system.h ****  */
  18:../../../../libs/libDaisy/src/sys/system.h **** class System
  19:../../../../libs/libDaisy/src/sys/system.h **** {
  20:../../../../libs/libDaisy/src/sys/system.h ****   public:
  21:../../../../libs/libDaisy/src/sys/system.h ****     /** Contains settings for initializing the System */
  22:../../../../libs/libDaisy/src/sys/system.h ****     struct Config
  23:../../../../libs/libDaisy/src/sys/system.h ****     {
  24:../../../../libs/libDaisy/src/sys/system.h ****         /** Specifies the system clock frequency that feeds APB/AHB clocks, etc. */
  25:../../../../libs/libDaisy/src/sys/system.h ****         enum class SysClkFreq
  26:../../../../libs/libDaisy/src/sys/system.h ****         {
  27:../../../../libs/libDaisy/src/sys/system.h ****             FREQ_400MHZ,
  28:../../../../libs/libDaisy/src/sys/system.h ****             FREQ_480MHZ,
  29:../../../../libs/libDaisy/src/sys/system.h ****         };
  30:../../../../libs/libDaisy/src/sys/system.h **** 
  31:../../../../libs/libDaisy/src/sys/system.h ****         /** Method to call on the struct to set to defaults
  32:../../../../libs/libDaisy/src/sys/system.h ****          ** CPU Freq set to 400MHz
  33:../../../../libs/libDaisy/src/sys/system.h ****          ** Cache Enabled 
  34:../../../../libs/libDaisy/src/sys/system.h ****          ** */
  35:../../../../libs/libDaisy/src/sys/system.h ****         void Defaults()
  36:../../../../libs/libDaisy/src/sys/system.h ****         {
  37:../../../../libs/libDaisy/src/sys/system.h ****             cpu_freq    = SysClkFreq::FREQ_400MHZ;
  38:../../../../libs/libDaisy/src/sys/system.h ****             use_dcache  = true;
  39:../../../../libs/libDaisy/src/sys/system.h ****             use_icache  = true;
  40:../../../../libs/libDaisy/src/sys/system.h ****             skip_clocks = false;
  41:../../../../libs/libDaisy/src/sys/system.h ****         }
  42:../../../../libs/libDaisy/src/sys/system.h **** 
  43:../../../../libs/libDaisy/src/sys/system.h ****         /** Method to call on the struct to set to boost mode:
  44:../../../../libs/libDaisy/src/sys/system.h ****          ** CPU Freq set to 480MHz
  45:../../../../libs/libDaisy/src/sys/system.h ****          ** Cache Enabled 
  46:../../../../libs/libDaisy/src/sys/system.h ****          ** */
  47:../../../../libs/libDaisy/src/sys/system.h ****         void Boost()
  48:../../../../libs/libDaisy/src/sys/system.h ****         {
  49:../../../../libs/libDaisy/src/sys/system.h ****             cpu_freq    = SysClkFreq::FREQ_480MHZ;
  50:../../../../libs/libDaisy/src/sys/system.h ****             use_dcache  = true;
  51:../../../../libs/libDaisy/src/sys/system.h ****             use_icache  = true;
  52:../../../../libs/libDaisy/src/sys/system.h ****             skip_clocks = false;
  53:../../../../libs/libDaisy/src/sys/system.h ****         }
  54:../../../../libs/libDaisy/src/sys/system.h **** 
  55:../../../../libs/libDaisy/src/sys/system.h ****         SysClkFreq cpu_freq;
  56:../../../../libs/libDaisy/src/sys/system.h ****         bool       use_dcache;
  57:../../../../libs/libDaisy/src/sys/system.h ****         bool       use_icache;
  58:../../../../libs/libDaisy/src/sys/system.h ****         bool       skip_clocks;
  59:../../../../libs/libDaisy/src/sys/system.h ****     };
  60:../../../../libs/libDaisy/src/sys/system.h **** 
  61:../../../../libs/libDaisy/src/sys/system.h ****     /** Describes the different regions of memory available to the Daisy
  62:../../../../libs/libDaisy/src/sys/system.h ****      * 
  63:../../../../libs/libDaisy/src/sys/system.h ****      */
  64:../../../../libs/libDaisy/src/sys/system.h ****     enum MemoryRegion
  65:../../../../libs/libDaisy/src/sys/system.h ****     {
  66:../../../../libs/libDaisy/src/sys/system.h ****         INTERNAL_FLASH = 0,
  67:../../../../libs/libDaisy/src/sys/system.h ****         ITCMRAM,
  68:../../../../libs/libDaisy/src/sys/system.h ****         DTCMRAM,
  69:../../../../libs/libDaisy/src/sys/system.h ****         SRAM_D1,
ARM GAS  /var/folders/f7/sjskzmt15v119_37bs_xt4r00000gn/T//cc3cAasR.s 			page 18


  70:../../../../libs/libDaisy/src/sys/system.h ****         SRAM_D2,
  71:../../../../libs/libDaisy/src/sys/system.h ****         SRAM_D3,
  72:../../../../libs/libDaisy/src/sys/system.h ****         SDRAM,
  73:../../../../libs/libDaisy/src/sys/system.h ****         QSPI,
  74:../../../../libs/libDaisy/src/sys/system.h ****         INVALID_ADDRESS,
  75:../../../../libs/libDaisy/src/sys/system.h ****     };
  76:../../../../libs/libDaisy/src/sys/system.h **** 
  77:../../../../libs/libDaisy/src/sys/system.h ****     System() {}
 240              		.loc 5 77 5
 241              		.cfi_startproc
 242              		@ args = 0, pretend = 0, frame = 8
 243              		@ frame_needed = 1, uses_anonymous_args = 0
 244              		@ link register save eliminated.
 245 0000 80B4     		push	{r7}
 246              		.cfi_def_cfa_offset 4
 247              		.cfi_offset 7, -4
 248 0002 83B0     		sub	sp, sp, #12
 249              		.cfi_def_cfa_offset 16
 250 0004 00AF     		add	r7, sp, #0
 251              		.cfi_def_cfa_register 7
 252 0006 7860     		str	r0, [r7, #4]
 253              		.loc 5 77 15
 254 0008 7B68     		ldr	r3, [r7, #4]
 255 000a 1846     		mov	r0, r3
 256 000c 0C37     		adds	r7, r7, #12
 257              		.cfi_def_cfa_offset 4
 258 000e BD46     		mov	sp, r7
 259              		.cfi_def_cfa_register 13
 260              		@ sp needed
 261 0010 5DF8047B 		ldr	r7, [sp], #4
 262              		.cfi_restore 7
 263              		.cfi_def_cfa_offset 0
 264 0014 7047     		bx	lr
 265              		.cfi_endproc
 266              	.LFE1434:
 268              		.weak	_ZN5daisy6SystemC1Ev
 269              		.thumb_set _ZN5daisy6SystemC1Ev,_ZN5daisy6SystemC2Ev
 270              		.section	.text._ZN5daisy6SystemD2Ev,"axG",%progbits,_ZN5daisy6SystemD5Ev,comdat
 271              		.align	1
 272              		.weak	_ZN5daisy6SystemD2Ev
 273              		.syntax unified
 274              		.thumb
 275              		.thumb_func
 277              	_ZN5daisy6SystemD2Ev:
 278              	.LFB1437:
  78:../../../../libs/libDaisy/src/sys/system.h ****     ~System() {}
 279              		.loc 5 78 5
 280              		.cfi_startproc
 281              		@ args = 0, pretend = 0, frame = 8
 282              		@ frame_needed = 1, uses_anonymous_args = 0
 283              		@ link register save eliminated.
 284 0000 80B4     		push	{r7}
 285              		.cfi_def_cfa_offset 4
 286              		.cfi_offset 7, -4
 287 0002 83B0     		sub	sp, sp, #12
 288              		.cfi_def_cfa_offset 16
 289 0004 00AF     		add	r7, sp, #0
ARM GAS  /var/folders/f7/sjskzmt15v119_37bs_xt4r00000gn/T//cc3cAasR.s 			page 19


 290              		.cfi_def_cfa_register 7
 291 0006 7860     		str	r0, [r7, #4]
 292              		.loc 5 78 16
 293 0008 7B68     		ldr	r3, [r7, #4]
 294 000a 1846     		mov	r0, r3
 295 000c 0C37     		adds	r7, r7, #12
 296              		.cfi_def_cfa_offset 4
 297 000e BD46     		mov	sp, r7
 298              		.cfi_def_cfa_register 13
 299              		@ sp needed
 300 0010 5DF8047B 		ldr	r7, [sp], #4
 301              		.cfi_restore 7
 302              		.cfi_def_cfa_offset 0
 303 0014 7047     		bx	lr
 304              		.cfi_endproc
 305              	.LFE1437:
 307              		.weak	_ZN5daisy6SystemD1Ev
 308              		.thumb_set _ZN5daisy6SystemD1Ev,_ZN5daisy6SystemD2Ev
 309              		.section	.text._ZN5daisy10QSPIHandleC2Ev,"axG",%progbits,_ZN5daisy10QSPIHandleC5Ev,comdat
 310              		.align	1
 311              		.weak	_ZN5daisy10QSPIHandleC2Ev
 312              		.syntax unified
 313              		.thumb
 314              		.thumb_func
 316              	_ZN5daisy10QSPIHandleC2Ev:
 317              	.LFB1441:
 318              		.file 6 "../../../../libs/libDaisy/src/per/qspi.h"
   1:../../../../libs/libDaisy/src/per/qspi.h **** #ifndef DSY_QSPI
   2:../../../../libs/libDaisy/src/per/qspi.h **** #define DSY_QSPI /**< Macro */
   3:../../../../libs/libDaisy/src/per/qspi.h **** 
   4:../../../../libs/libDaisy/src/per/qspi.h **** #ifndef UNIT_TEST // for unit tests, a dummy implementation
   5:../../../../libs/libDaisy/src/per/qspi.h **** 
   6:../../../../libs/libDaisy/src/per/qspi.h **** #include <cstdint>
   7:../../../../libs/libDaisy/src/per/qspi.h **** #include "daisy_core.h" // Added for dsy_gpio_pin typedef
   8:../../../../libs/libDaisy/src/per/qspi.h **** 
   9:../../../../libs/libDaisy/src/per/qspi.h **** #define DSY_QSPI_TEXT       \
  10:../../../../libs/libDaisy/src/per/qspi.h ****     __attribute__((section( \
  11:../../../../libs/libDaisy/src/per/qspi.h ****         ".qspiflash_text"))) /**< used for reading memory in memory_mapped mode. */
  12:../../../../libs/libDaisy/src/per/qspi.h **** #define DSY_QSPI_DATA       \
  13:../../../../libs/libDaisy/src/per/qspi.h ****     __attribute__((section( \
  14:../../../../libs/libDaisy/src/per/qspi.h ****         ".qspiflash_data"))) /**< used for reading memory in memory_mapped mode. */
  15:../../../../libs/libDaisy/src/per/qspi.h **** #define DSY_QSPI_BSS        \
  16:../../../../libs/libDaisy/src/per/qspi.h ****     __attribute__((section( \
  17:../../../../libs/libDaisy/src/per/qspi.h ****         ".qspiflash_bss"))) /**< used for reading memory in memory_mapped mode. */
  18:../../../../libs/libDaisy/src/per/qspi.h **** 
  19:../../../../libs/libDaisy/src/per/qspi.h **** namespace daisy
  20:../../../../libs/libDaisy/src/per/qspi.h **** {
  21:../../../../libs/libDaisy/src/per/qspi.h **** /** @addtogroup serial
  22:../../../../libs/libDaisy/src/per/qspi.h **** @{
  23:../../../../libs/libDaisy/src/per/qspi.h **** */
  24:../../../../libs/libDaisy/src/per/qspi.h **** 
  25:../../../../libs/libDaisy/src/per/qspi.h **** /** 
  26:../../../../libs/libDaisy/src/per/qspi.h ****  Driver for QSPI peripheral to interface with external flash memory. \n 
  27:../../../../libs/libDaisy/src/per/qspi.h ****     Currently supported QSPI Devices: \n 
  28:../../../../libs/libDaisy/src/per/qspi.h ****     * IS25LP080D
  29:../../../../libs/libDaisy/src/per/qspi.h **** */
  30:../../../../libs/libDaisy/src/per/qspi.h **** class QSPIHandle
ARM GAS  /var/folders/f7/sjskzmt15v119_37bs_xt4r00000gn/T//cc3cAasR.s 			page 20


  31:../../../../libs/libDaisy/src/per/qspi.h **** {
  32:../../../../libs/libDaisy/src/per/qspi.h ****   public:
  33:../../../../libs/libDaisy/src/per/qspi.h ****     enum Result
  34:../../../../libs/libDaisy/src/per/qspi.h ****     {
  35:../../../../libs/libDaisy/src/per/qspi.h ****         OK = 0,
  36:../../../../libs/libDaisy/src/per/qspi.h ****         ERR
  37:../../../../libs/libDaisy/src/per/qspi.h ****     };
  38:../../../../libs/libDaisy/src/per/qspi.h **** 
  39:../../../../libs/libDaisy/src/per/qspi.h ****     /** Indicates the current status of the module. 
  40:../../../../libs/libDaisy/src/per/qspi.h ****          *  Warnings are indicated by a leading W.
  41:../../../../libs/libDaisy/src/per/qspi.h ****          *  Errors are indicated by a leading E and cause an immediate exit.
  42:../../../../libs/libDaisy/src/per/qspi.h ****          * 
  43:../../../../libs/libDaisy/src/per/qspi.h ****          *  \param GOOD - No errors have been reported.
  44:../../../../libs/libDaisy/src/per/qspi.h ****          *  \param E_HAL_ERROR - HAL code did not return HAL_OK.
  45:../../../../libs/libDaisy/src/per/qspi.h ****          *  \param E_SWITCHING_MODES - An error was encountered while switching QSPI peripheral mod
  46:../../../../libs/libDaisy/src/per/qspi.h ****          *  \param E_INVALID_MODE - QSPI should not be written to while the program is executing fr
  47:../../../../libs/libDaisy/src/per/qspi.h ****          */
  48:../../../../libs/libDaisy/src/per/qspi.h ****     enum Status
  49:../../../../libs/libDaisy/src/per/qspi.h ****     {
  50:../../../../libs/libDaisy/src/per/qspi.h ****         GOOD = 0,
  51:../../../../libs/libDaisy/src/per/qspi.h ****         E_HAL_ERROR,
  52:../../../../libs/libDaisy/src/per/qspi.h ****         E_SWITCHING_MODES,
  53:../../../../libs/libDaisy/src/per/qspi.h ****         E_INVALID_MODE,
  54:../../../../libs/libDaisy/src/per/qspi.h ****     };
  55:../../../../libs/libDaisy/src/per/qspi.h **** 
  56:../../../../libs/libDaisy/src/per/qspi.h ****     /** Configuration structure for interfacing with QSPI Driver */
  57:../../../../libs/libDaisy/src/per/qspi.h ****     struct Config
  58:../../../../libs/libDaisy/src/per/qspi.h ****     {
  59:../../../../libs/libDaisy/src/per/qspi.h ****         /** Flash Devices supported. (Both of these are more-or-less the same, just different sizes
  60:../../../../libs/libDaisy/src/per/qspi.h ****         enum Device
  61:../../../../libs/libDaisy/src/per/qspi.h ****         {
  62:../../../../libs/libDaisy/src/per/qspi.h ****             IS25LP080D,  /**< & */
  63:../../../../libs/libDaisy/src/per/qspi.h ****             IS25LP064A,  /**< & */
  64:../../../../libs/libDaisy/src/per/qspi.h ****             DEVICE_LAST, /**< & */
  65:../../../../libs/libDaisy/src/per/qspi.h ****         };
  66:../../../../libs/libDaisy/src/per/qspi.h **** 
  67:../../../../libs/libDaisy/src/per/qspi.h ****         /** 
  68:../../../../libs/libDaisy/src/per/qspi.h ****         Modes of operation.
  69:../../../../libs/libDaisy/src/per/qspi.h ****         Memory Mapped mode: QSPI configured so that the QSPI can be
  70:../../../../libs/libDaisy/src/per/qspi.h ****         read from starting address 0x90000000. Writing is not
  71:../../../../libs/libDaisy/src/per/qspi.h ****         possible in this mode. \n 
  72:../../../../libs/libDaisy/src/per/qspi.h ****         Indirect Polling mode: Device driver enabled. 
  73:../../../../libs/libDaisy/src/per/qspi.h ****         */
  74:../../../../libs/libDaisy/src/per/qspi.h ****         enum Mode
  75:../../../../libs/libDaisy/src/per/qspi.h ****         {
  76:../../../../libs/libDaisy/src/per/qspi.h ****             MEMORY_MAPPED,    /**< & */
  77:../../../../libs/libDaisy/src/per/qspi.h ****             INDIRECT_POLLING, /**< & */
  78:../../../../libs/libDaisy/src/per/qspi.h ****             MODE_LAST,
  79:../../../../libs/libDaisy/src/per/qspi.h ****         };
  80:../../../../libs/libDaisy/src/per/qspi.h **** 
  81:../../../../libs/libDaisy/src/per/qspi.h ****         //SCK,  CE# (active low)
  82:../../../../libs/libDaisy/src/per/qspi.h ****         struct
  83:../../../../libs/libDaisy/src/per/qspi.h ****         {
  84:../../../../libs/libDaisy/src/per/qspi.h ****             dsy_gpio_pin io0; /**< & */
  85:../../../../libs/libDaisy/src/per/qspi.h ****             dsy_gpio_pin io1; /**< & */
  86:../../../../libs/libDaisy/src/per/qspi.h ****             dsy_gpio_pin io2; /**< & */
  87:../../../../libs/libDaisy/src/per/qspi.h ****             dsy_gpio_pin io3; /**< & */
ARM GAS  /var/folders/f7/sjskzmt15v119_37bs_xt4r00000gn/T//cc3cAasR.s 			page 21


  88:../../../../libs/libDaisy/src/per/qspi.h ****             dsy_gpio_pin clk; /**< & */
  89:../../../../libs/libDaisy/src/per/qspi.h ****             dsy_gpio_pin ncs; /**< & */
  90:../../../../libs/libDaisy/src/per/qspi.h ****         } pin_config;
  91:../../../../libs/libDaisy/src/per/qspi.h **** 
  92:../../../../libs/libDaisy/src/per/qspi.h ****         Device device;
  93:../../../../libs/libDaisy/src/per/qspi.h ****         Mode   mode;
  94:../../../../libs/libDaisy/src/per/qspi.h ****     };
  95:../../../../libs/libDaisy/src/per/qspi.h **** 
  96:../../../../libs/libDaisy/src/per/qspi.h ****     /** 
  97:../../../../libs/libDaisy/src/per/qspi.h ****         Initializes QSPI peripheral, and Resets, and prepares memory for access.
  98:../../../../libs/libDaisy/src/per/qspi.h ****         \param config should be populated with the mode, device and pin_config before calling this 
  99:../../../../libs/libDaisy/src/per/qspi.h ****         \return Result::OK or Result::ERR
 100:../../../../libs/libDaisy/src/per/qspi.h ****         */
 101:../../../../libs/libDaisy/src/per/qspi.h ****     Result Init(const Config& config);
 102:../../../../libs/libDaisy/src/per/qspi.h **** 
 103:../../../../libs/libDaisy/src/per/qspi.h ****     /** Returns the current config. */
 104:../../../../libs/libDaisy/src/per/qspi.h ****     const Config& GetConfig() const;
 105:../../../../libs/libDaisy/src/per/qspi.h **** 
 106:../../../../libs/libDaisy/src/per/qspi.h ****     // Couldn't this just be called before anything else in init? That
 107:../../../../libs/libDaisy/src/per/qspi.h ****     // would make manually calling it unnecessary.
 108:../../../../libs/libDaisy/src/per/qspi.h ****     /** 
 109:../../../../libs/libDaisy/src/per/qspi.h ****         Deinitializes the peripheral
 110:../../../../libs/libDaisy/src/per/qspi.h ****         This should be called before reinitializing QSPI in a different mode.
 111:../../../../libs/libDaisy/src/per/qspi.h ****         \return Result::OK or Result::ERR
 112:../../../../libs/libDaisy/src/per/qspi.h ****         */
 113:../../../../libs/libDaisy/src/per/qspi.h ****     Result DeInit();
 114:../../../../libs/libDaisy/src/per/qspi.h **** 
 115:../../../../libs/libDaisy/src/per/qspi.h ****     /** 
 116:../../../../libs/libDaisy/src/per/qspi.h ****         Writes a single page to to the specified address on the QSPI chip.
 117:../../../../libs/libDaisy/src/per/qspi.h ****         For IS25LP*, page size is 256 bytes.
 118:../../../../libs/libDaisy/src/per/qspi.h ****         \param address Address to write to
 119:../../../../libs/libDaisy/src/per/qspi.h ****         \param size Buffer size
 120:../../../../libs/libDaisy/src/per/qspi.h ****         \param buffer Buffer to write
 121:../../../../libs/libDaisy/src/per/qspi.h ****         \return Result::OK or Result::ERR
 122:../../../../libs/libDaisy/src/per/qspi.h ****         */
 123:../../../../libs/libDaisy/src/per/qspi.h ****     Result WritePage(uint32_t address, uint32_t size, uint8_t* buffer);
 124:../../../../libs/libDaisy/src/per/qspi.h **** 
 125:../../../../libs/libDaisy/src/per/qspi.h ****     /** 
 126:../../../../libs/libDaisy/src/per/qspi.h ****         Writes data in buffer to to the QSPI. Starting at address to address+size 
 127:../../../../libs/libDaisy/src/per/qspi.h ****         \param address Address to write to
 128:../../../../libs/libDaisy/src/per/qspi.h ****         \param size Buffer size
 129:../../../../libs/libDaisy/src/per/qspi.h ****         \param buffer Buffer to write
 130:../../../../libs/libDaisy/src/per/qspi.h ****         \return Result::OK or Result::ERR
 131:../../../../libs/libDaisy/src/per/qspi.h ****         */
 132:../../../../libs/libDaisy/src/per/qspi.h ****     Result Write(uint32_t address, uint32_t size, uint8_t* buffer);
 133:../../../../libs/libDaisy/src/per/qspi.h **** 
 134:../../../../libs/libDaisy/src/per/qspi.h ****     /** 
 135:../../../../libs/libDaisy/src/per/qspi.h ****         Erases the area specified on the chip.
 136:../../../../libs/libDaisy/src/per/qspi.h ****         Erasures will happen by 4K, 32K or 64K increments.
 137:../../../../libs/libDaisy/src/per/qspi.h ****         Smallest erase possible is 4kB at a time. (on IS25LP*)
 138:../../../../libs/libDaisy/src/per/qspi.h ****         \param start_addr Address to begin erasing from
 139:../../../../libs/libDaisy/src/per/qspi.h ****         \param end_addr  Address to stop erasing at
 140:../../../../libs/libDaisy/src/per/qspi.h ****         \return Result::OK or Result::ERR
 141:../../../../libs/libDaisy/src/per/qspi.h ****         */
 142:../../../../libs/libDaisy/src/per/qspi.h ****     Result Erase(uint32_t start_addr, uint32_t end_addr);
 143:../../../../libs/libDaisy/src/per/qspi.h **** 
 144:../../../../libs/libDaisy/src/per/qspi.h ****     /**  
ARM GAS  /var/folders/f7/sjskzmt15v119_37bs_xt4r00000gn/T//cc3cAasR.s 			page 22


 145:../../../../libs/libDaisy/src/per/qspi.h ****          Erases a single sector of the chip.  
 146:../../../../libs/libDaisy/src/per/qspi.h ****         TODO: Document the size of this function. 
 147:../../../../libs/libDaisy/src/per/qspi.h ****         \param addr Address of sector to erase
 148:../../../../libs/libDaisy/src/per/qspi.h ****         \return Result::OK or Result::ERR
 149:../../../../libs/libDaisy/src/per/qspi.h ****         */
 150:../../../../libs/libDaisy/src/per/qspi.h ****     Result EraseSector(uint32_t address);
 151:../../../../libs/libDaisy/src/per/qspi.h **** 
 152:../../../../libs/libDaisy/src/per/qspi.h ****     /** Returns the current class status. Useful for debugging.
 153:../../../../libs/libDaisy/src/per/qspi.h ****      *  \returns Status
 154:../../../../libs/libDaisy/src/per/qspi.h ****      */
 155:../../../../libs/libDaisy/src/per/qspi.h ****     Status GetStatus();
 156:../../../../libs/libDaisy/src/per/qspi.h **** 
 157:../../../../libs/libDaisy/src/per/qspi.h ****     /** Returns a pointer to the actual memory used 
 158:../../../../libs/libDaisy/src/per/qspi.h ****      *  The memory at this address is read-only
 159:../../../../libs/libDaisy/src/per/qspi.h ****      *  to write to it use the Write function.
 160:../../../../libs/libDaisy/src/per/qspi.h ****      * 
 161:../../../../libs/libDaisy/src/per/qspi.h ****      *  \param offset returns the pointer starting this 
 162:../../../../libs/libDaisy/src/per/qspi.h ****      *                many bytes into the memory
 163:../../../../libs/libDaisy/src/per/qspi.h ****     */
 164:../../../../libs/libDaisy/src/per/qspi.h ****     void* GetData(uint32_t offset = 0);
 165:../../../../libs/libDaisy/src/per/qspi.h **** 
 166:../../../../libs/libDaisy/src/per/qspi.h ****     QSPIHandle() : pimpl_(nullptr) {}
 319              		.loc 6 166 5
 320              		.cfi_startproc
 321              		@ args = 0, pretend = 0, frame = 8
 322              		@ frame_needed = 1, uses_anonymous_args = 0
 323              		@ link register save eliminated.
 324 0000 80B4     		push	{r7}
 325              		.cfi_def_cfa_offset 4
 326              		.cfi_offset 7, -4
 327 0002 83B0     		sub	sp, sp, #12
 328              		.cfi_def_cfa_offset 16
 329 0004 00AF     		add	r7, sp, #0
 330              		.cfi_def_cfa_register 7
 331 0006 7860     		str	r0, [r7, #4]
 332              	.LBB298:
 333              		.loc 6 166 20
 334 0008 7B68     		ldr	r3, [r7, #4]
 335 000a 0022     		movs	r2, #0
 336 000c 1A60     		str	r2, [r3]
 337              	.LBE298:
 338              		.loc 6 166 37
 339 000e 7B68     		ldr	r3, [r7, #4]
 340 0010 1846     		mov	r0, r3
 341 0012 0C37     		adds	r7, r7, #12
 342              		.cfi_def_cfa_offset 4
 343 0014 BD46     		mov	sp, r7
 344              		.cfi_def_cfa_register 13
 345              		@ sp needed
 346 0016 5DF8047B 		ldr	r7, [sp], #4
 347              		.cfi_restore 7
 348              		.cfi_def_cfa_offset 0
 349 001a 7047     		bx	lr
 350              		.cfi_endproc
 351              	.LFE1441:
 353              		.weak	_ZN5daisy10QSPIHandleC1Ev
 354              		.thumb_set _ZN5daisy10QSPIHandleC1Ev,_ZN5daisy10QSPIHandleC2Ev
ARM GAS  /var/folders/f7/sjskzmt15v119_37bs_xt4r00000gn/T//cc3cAasR.s 			page 23


 355              		.section	.text._ZN5daisy9DacHandleC2Ev,"axG",%progbits,_ZN5daisy9DacHandleC5Ev,comdat
 356              		.align	1
 357              		.weak	_ZN5daisy9DacHandleC2Ev
 358              		.syntax unified
 359              		.thumb
 360              		.thumb_func
 362              	_ZN5daisy9DacHandleC2Ev:
 363              	.LFB1444:
 364              		.file 7 "../../../../libs/libDaisy/src/per/dac.h"
   1:../../../../libs/libDaisy/src/per/dac.h **** #pragma once
   2:../../../../libs/libDaisy/src/per/dac.h **** #ifndef DSY_DAC_H
   3:../../../../libs/libDaisy/src/per/dac.h **** #define DSY_DAC_H
   4:../../../../libs/libDaisy/src/per/dac.h **** 
   5:../../../../libs/libDaisy/src/per/dac.h **** #include "daisy_core.h"
   6:../../../../libs/libDaisy/src/per/dac.h **** 
   7:../../../../libs/libDaisy/src/per/dac.h **** namespace daisy
   8:../../../../libs/libDaisy/src/per/dac.h **** {
   9:../../../../libs/libDaisy/src/per/dac.h **** /** DAC handle for Built-in DAC Peripheral 
  10:../../../../libs/libDaisy/src/per/dac.h ****  ** 
  11:../../../../libs/libDaisy/src/per/dac.h ****  ** For now only Normal Mode is supported,
  12:../../../../libs/libDaisy/src/per/dac.h ****  ** Sample and hold mode provides reduced power consumption, but requires a bit more setup.
  13:../../../../libs/libDaisy/src/per/dac.h ****  **
  14:../../../../libs/libDaisy/src/per/dac.h ****  ** For now connecting the DAC through other internal periphearls is also not supported.
  15:../../../../libs/libDaisy/src/per/dac.h ****  **
  16:../../../../libs/libDaisy/src/per/dac.h ****  ** Since the DAC channels have dedicated pins we don't need to pass in a pin config like with
  17:../../../../libs/libDaisy/src/per/dac.h ****  ** other modules. However, it is still important to not try to use the DAC pins for anything else.
  18:../../../../libs/libDaisy/src/per/dac.h ****  ** DAC Channel 1 is on PA4, and DAC Channel 2 is on PA5
  19:../../../../libs/libDaisy/src/per/dac.h ****  ***/
  20:../../../../libs/libDaisy/src/per/dac.h **** class DacHandle
  21:../../../../libs/libDaisy/src/per/dac.h **** {
  22:../../../../libs/libDaisy/src/per/dac.h ****   public:
  23:../../../../libs/libDaisy/src/per/dac.h ****     /** Return Values for the DacHandle class */
  24:../../../../libs/libDaisy/src/per/dac.h ****     enum class Result
  25:../../../../libs/libDaisy/src/per/dac.h ****     {
  26:../../../../libs/libDaisy/src/per/dac.h ****         OK,
  27:../../../../libs/libDaisy/src/per/dac.h ****         ERR,
  28:../../../../libs/libDaisy/src/per/dac.h ****     };
  29:../../../../libs/libDaisy/src/per/dac.h **** 
  30:../../../../libs/libDaisy/src/per/dac.h ****     /** Selects which channel(s) will be configured for use. */
  31:../../../../libs/libDaisy/src/per/dac.h ****     enum class Channel
  32:../../../../libs/libDaisy/src/per/dac.h ****     {
  33:../../../../libs/libDaisy/src/per/dac.h ****         ONE,
  34:../../../../libs/libDaisy/src/per/dac.h ****         TWO,
  35:../../../../libs/libDaisy/src/per/dac.h ****         BOTH,
  36:../../../../libs/libDaisy/src/per/dac.h ****     };
  37:../../../../libs/libDaisy/src/per/dac.h **** 
  38:../../../../libs/libDaisy/src/per/dac.h ****     /** Sets the Mode for the DAC channels.
  39:../../../../libs/libDaisy/src/per/dac.h ****      **
  40:../../../../libs/libDaisy/src/per/dac.h ****      ** Polling mode uses the blocking mode to transmit a single value at a time.
  41:../../../../libs/libDaisy/src/per/dac.h ****      **
  42:../../../../libs/libDaisy/src/per/dac.h ****      ** DMA mode uses a buffer, and periodically transmits it triggering a 
  43:../../../../libs/libDaisy/src/per/dac.h ****      ** callback to fill the buffer when it is ready for more samples.
  44:../../../../libs/libDaisy/src/per/dac.h ****      ***/
  45:../../../../libs/libDaisy/src/per/dac.h ****     enum class Mode
  46:../../../../libs/libDaisy/src/per/dac.h ****     {
  47:../../../../libs/libDaisy/src/per/dac.h ****         POLLING,
  48:../../../../libs/libDaisy/src/per/dac.h ****         DMA,
ARM GAS  /var/folders/f7/sjskzmt15v119_37bs_xt4r00000gn/T//cc3cAasR.s 			page 24


  49:../../../../libs/libDaisy/src/per/dac.h ****     };
  50:../../../../libs/libDaisy/src/per/dac.h **** 
  51:../../../../libs/libDaisy/src/per/dac.h ****     /** Sets the number of bits per sample transmitted out of the DAC.
  52:../../../../libs/libDaisy/src/per/dac.h ****      ** The output range will be: 0V - VDDA
  53:../../../../libs/libDaisy/src/per/dac.h ****      ** The resolution will be roughly: bitdepth / (VDDA - 0V) 
  54:../../../../libs/libDaisy/src/per/dac.h ****      ***/
  55:../../../../libs/libDaisy/src/per/dac.h ****     enum class BitDepth
  56:../../../../libs/libDaisy/src/per/dac.h ****     {
  57:../../../../libs/libDaisy/src/per/dac.h ****         BITS_8,
  58:../../../../libs/libDaisy/src/per/dac.h ****         BITS_12
  59:../../../../libs/libDaisy/src/per/dac.h ****     };
  60:../../../../libs/libDaisy/src/per/dac.h **** 
  61:../../../../libs/libDaisy/src/per/dac.h ****     /** Sets whether the DAC output is buffered for higher drive ability. */
  62:../../../../libs/libDaisy/src/per/dac.h ****     enum class BufferState
  63:../../../../libs/libDaisy/src/per/dac.h ****     {
  64:../../../../libs/libDaisy/src/per/dac.h ****         ENABLED,
  65:../../../../libs/libDaisy/src/per/dac.h ****         DISABLED,
  66:../../../../libs/libDaisy/src/per/dac.h ****     };
  67:../../../../libs/libDaisy/src/per/dac.h **** 
  68:../../../../libs/libDaisy/src/per/dac.h ****     /** Configuration structure for initializing the DAC structure. */
  69:../../../../libs/libDaisy/src/per/dac.h ****     struct Config
  70:../../../../libs/libDaisy/src/per/dac.h ****     {
  71:../../../../libs/libDaisy/src/per/dac.h ****         /** Target Samplerate in Hz used to configure the internal 
  72:../../../../libs/libDaisy/src/per/dac.h ****          ** timebase for DMA mode. Does nothing in POLLING mode.
  73:../../../../libs/libDaisy/src/per/dac.h ****          ** If the value is 0 at Init time this will default to 48000Hz 
  74:../../../../libs/libDaisy/src/per/dac.h ****          ** otherwise the driver will attempt meet the target.*/
  75:../../../../libs/libDaisy/src/per/dac.h ****         uint32_t target_samplerate;
  76:../../../../libs/libDaisy/src/per/dac.h **** 
  77:../../../../libs/libDaisy/src/per/dac.h ****         Channel     chn;
  78:../../../../libs/libDaisy/src/per/dac.h ****         Mode        mode;
  79:../../../../libs/libDaisy/src/per/dac.h ****         BitDepth    bitdepth;
  80:../../../../libs/libDaisy/src/per/dac.h ****         BufferState buff_state;
  81:../../../../libs/libDaisy/src/per/dac.h ****     };
  82:../../../../libs/libDaisy/src/per/dac.h **** 
  83:../../../../libs/libDaisy/src/per/dac.h ****     DacHandle() : pimpl_(nullptr) {}
 365              		.loc 7 83 5
 366              		.cfi_startproc
 367              		@ args = 0, pretend = 0, frame = 8
 368              		@ frame_needed = 1, uses_anonymous_args = 0
 369              		@ link register save eliminated.
 370 0000 80B4     		push	{r7}
 371              		.cfi_def_cfa_offset 4
 372              		.cfi_offset 7, -4
 373 0002 83B0     		sub	sp, sp, #12
 374              		.cfi_def_cfa_offset 16
 375 0004 00AF     		add	r7, sp, #0
 376              		.cfi_def_cfa_register 7
 377 0006 7860     		str	r0, [r7, #4]
 378              	.LBB299:
 379              		.loc 7 83 19
 380 0008 7B68     		ldr	r3, [r7, #4]
 381 000a 0022     		movs	r2, #0
 382 000c 1A60     		str	r2, [r3]
 383              	.LBE299:
 384              		.loc 7 83 36
 385 000e 7B68     		ldr	r3, [r7, #4]
 386 0010 1846     		mov	r0, r3
ARM GAS  /var/folders/f7/sjskzmt15v119_37bs_xt4r00000gn/T//cc3cAasR.s 			page 25


 387 0012 0C37     		adds	r7, r7, #12
 388              		.cfi_def_cfa_offset 4
 389 0014 BD46     		mov	sp, r7
 390              		.cfi_def_cfa_register 13
 391              		@ sp needed
 392 0016 5DF8047B 		ldr	r7, [sp], #4
 393              		.cfi_restore 7
 394              		.cfi_def_cfa_offset 0
 395 001a 7047     		bx	lr
 396              		.cfi_endproc
 397              	.LFE1444:
 399              		.weak	_ZN5daisy9DacHandleC1Ev
 400              		.thumb_set _ZN5daisy9DacHandleC1Ev,_ZN5daisy9DacHandleC2Ev
 401              		.section	.text._ZN5daisy11AudioHandleC2Ev,"axG",%progbits,_ZN5daisy11AudioHandleC5Ev,comdat
 402              		.align	1
 403              		.weak	_ZN5daisy11AudioHandleC2Ev
 404              		.syntax unified
 405              		.thumb
 406              		.thumb_func
 408              	_ZN5daisy11AudioHandleC2Ev:
 409              	.LFB1477:
 410              		.file 8 "../../../../libs/libDaisy/src/hid/audio.h"
   1:../../../../libs/libDaisy/src/hid/audio.h **** #ifndef DSY_AUDIO_H
   2:../../../../libs/libDaisy/src/hid/audio.h **** #define DSY_AUDIO_H /**< & */
   3:../../../../libs/libDaisy/src/hid/audio.h **** 
   4:../../../../libs/libDaisy/src/hid/audio.h **** #include "per/sai.h"
   5:../../../../libs/libDaisy/src/hid/audio.h **** 
   6:../../../../libs/libDaisy/src/hid/audio.h **** namespace daisy
   7:../../../../libs/libDaisy/src/hid/audio.h **** {
   8:../../../../libs/libDaisy/src/hid/audio.h **** class AudioHandle
   9:../../../../libs/libDaisy/src/hid/audio.h **** {
  10:../../../../libs/libDaisy/src/hid/audio.h ****   public:
  11:../../../../libs/libDaisy/src/hid/audio.h ****     /** Manually configurable details about the Audio Engine */
  12:../../../../libs/libDaisy/src/hid/audio.h ****     /** TODO: Figure out how to get samplerate in here. */
  13:../../../../libs/libDaisy/src/hid/audio.h ****     struct Config
  14:../../../../libs/libDaisy/src/hid/audio.h ****     {
  15:../../../../libs/libDaisy/src/hid/audio.h ****         size_t                        blocksize;
  16:../../../../libs/libDaisy/src/hid/audio.h ****         SaiHandle::Config::SampleRate samplerate;
  17:../../../../libs/libDaisy/src/hid/audio.h ****         float                         postgain;
  18:../../../../libs/libDaisy/src/hid/audio.h ****     };
  19:../../../../libs/libDaisy/src/hid/audio.h **** 
  20:../../../../libs/libDaisy/src/hid/audio.h ****     enum class Result
  21:../../../../libs/libDaisy/src/hid/audio.h ****     {
  22:../../../../libs/libDaisy/src/hid/audio.h ****         OK,
  23:../../../../libs/libDaisy/src/hid/audio.h ****         ERR,
  24:../../../../libs/libDaisy/src/hid/audio.h ****     };
  25:../../../../libs/libDaisy/src/hid/audio.h **** 
  26:../../../../libs/libDaisy/src/hid/audio.h ****     /** Non-Interleaving input buffer
  27:../../../../libs/libDaisy/src/hid/audio.h ****      * Buffer arranged by float[chn][sample] 
  28:../../../../libs/libDaisy/src/hid/audio.h ****      * const so that the user can't modify the input
  29:../../../../libs/libDaisy/src/hid/audio.h ****     */
  30:../../../../libs/libDaisy/src/hid/audio.h ****     typedef const float* const* InputBuffer;
  31:../../../../libs/libDaisy/src/hid/audio.h **** 
  32:../../../../libs/libDaisy/src/hid/audio.h ****     /** Non-Interleaving output buffer
  33:../../../../libs/libDaisy/src/hid/audio.h ****      * Arranged by float[chn][sample] 
  34:../../../../libs/libDaisy/src/hid/audio.h ****     */
  35:../../../../libs/libDaisy/src/hid/audio.h ****     typedef float** OutputBuffer;
ARM GAS  /var/folders/f7/sjskzmt15v119_37bs_xt4r00000gn/T//cc3cAasR.s 			page 26


  36:../../../../libs/libDaisy/src/hid/audio.h **** 
  37:../../../../libs/libDaisy/src/hid/audio.h ****     /** Type for a Non-Interleaving audio callback 
  38:../../../../libs/libDaisy/src/hid/audio.h ****    * Non-Interleaving audio callbacks in daisy will be of this type
  39:../../../../libs/libDaisy/src/hid/audio.h ****   */
  40:../../../../libs/libDaisy/src/hid/audio.h ****     typedef void (*AudioCallback)(InputBuffer  in,
  41:../../../../libs/libDaisy/src/hid/audio.h ****                                   OutputBuffer out,
  42:../../../../libs/libDaisy/src/hid/audio.h ****                                   size_t       size);
  43:../../../../libs/libDaisy/src/hid/audio.h **** 
  44:../../../../libs/libDaisy/src/hid/audio.h ****     /** Interleaving Input buffer
  45:../../../../libs/libDaisy/src/hid/audio.h ****      ** audio is prepared as { L0, R0, L1, R1, . . . LN, RN }]
  46:../../../../libs/libDaisy/src/hid/audio.h ****      ** this is const, as the user shouldn't modify it
  47:../../../../libs/libDaisy/src/hid/audio.h ****     */
  48:../../../../libs/libDaisy/src/hid/audio.h ****     typedef const float* InterleavingInputBuffer;
  49:../../../../libs/libDaisy/src/hid/audio.h **** 
  50:../../../../libs/libDaisy/src/hid/audio.h ****     /** Interleaving Output buffer 
  51:../../../../libs/libDaisy/src/hid/audio.h ****      ** audio is prepared as { L0, R0, L1, R1, . . . LN, RN }
  52:../../../../libs/libDaisy/src/hid/audio.h ****     */
  53:../../../../libs/libDaisy/src/hid/audio.h ****     typedef float* InterleavingOutputBuffer;
  54:../../../../libs/libDaisy/src/hid/audio.h **** 
  55:../../../../libs/libDaisy/src/hid/audio.h ****     /** Interleaving Audio Callback 
  56:../../../../libs/libDaisy/src/hid/audio.h ****    * Interleaving audio callbacks in daisy must be of this type
  57:../../../../libs/libDaisy/src/hid/audio.h ****   */
  58:../../../../libs/libDaisy/src/hid/audio.h ****     typedef void (*InterleavingAudioCallback)(InterleavingInputBuffer  in,
  59:../../../../libs/libDaisy/src/hid/audio.h ****                                               InterleavingOutputBuffer out,
  60:../../../../libs/libDaisy/src/hid/audio.h ****                                               size_t                   size);
  61:../../../../libs/libDaisy/src/hid/audio.h **** 
  62:../../../../libs/libDaisy/src/hid/audio.h ****     AudioHandle() : pimpl_(nullptr) {}
 411              		.loc 8 62 5
 412              		.cfi_startproc
 413              		@ args = 0, pretend = 0, frame = 8
 414              		@ frame_needed = 1, uses_anonymous_args = 0
 415              		@ link register save eliminated.
 416 0000 80B4     		push	{r7}
 417              		.cfi_def_cfa_offset 4
 418              		.cfi_offset 7, -4
 419 0002 83B0     		sub	sp, sp, #12
 420              		.cfi_def_cfa_offset 16
 421 0004 00AF     		add	r7, sp, #0
 422              		.cfi_def_cfa_register 7
 423 0006 7860     		str	r0, [r7, #4]
 424              	.LBB300:
 425              		.loc 8 62 21
 426 0008 7B68     		ldr	r3, [r7, #4]
 427 000a 0022     		movs	r2, #0
 428 000c 1A60     		str	r2, [r3]
 429              	.LBE300:
 430              		.loc 8 62 38
 431 000e 7B68     		ldr	r3, [r7, #4]
 432 0010 1846     		mov	r0, r3
 433 0012 0C37     		adds	r7, r7, #12
 434              		.cfi_def_cfa_offset 4
 435 0014 BD46     		mov	sp, r7
 436              		.cfi_def_cfa_register 13
 437              		@ sp needed
 438 0016 5DF8047B 		ldr	r7, [sp], #4
 439              		.cfi_restore 7
 440              		.cfi_def_cfa_offset 0
ARM GAS  /var/folders/f7/sjskzmt15v119_37bs_xt4r00000gn/T//cc3cAasR.s 			page 27


 441 001a 7047     		bx	lr
 442              		.cfi_endproc
 443              	.LFE1477:
 445              		.weak	_ZN5daisy11AudioHandleC1Ev
 446              		.thumb_set _ZN5daisy11AudioHandleC1Ev,_ZN5daisy11AudioHandleC2Ev
 447              		.section	.text._ZN5daisy11AudioHandleD2Ev,"axG",%progbits,_ZN5daisy11AudioHandleD5Ev,comdat
 448              		.align	1
 449              		.weak	_ZN5daisy11AudioHandleD2Ev
 450              		.syntax unified
 451              		.thumb
 452              		.thumb_func
 454              	_ZN5daisy11AudioHandleD2Ev:
 455              	.LFB1480:
  63:../../../../libs/libDaisy/src/hid/audio.h ****     ~AudioHandle() {}
 456              		.loc 8 63 5
 457              		.cfi_startproc
 458              		@ args = 0, pretend = 0, frame = 8
 459              		@ frame_needed = 1, uses_anonymous_args = 0
 460              		@ link register save eliminated.
 461 0000 80B4     		push	{r7}
 462              		.cfi_def_cfa_offset 4
 463              		.cfi_offset 7, -4
 464 0002 83B0     		sub	sp, sp, #12
 465              		.cfi_def_cfa_offset 16
 466 0004 00AF     		add	r7, sp, #0
 467              		.cfi_def_cfa_register 7
 468 0006 7860     		str	r0, [r7, #4]
 469              		.loc 8 63 21
 470 0008 7B68     		ldr	r3, [r7, #4]
 471 000a 1846     		mov	r0, r3
 472 000c 0C37     		adds	r7, r7, #12
 473              		.cfi_def_cfa_offset 4
 474 000e BD46     		mov	sp, r7
 475              		.cfi_def_cfa_register 13
 476              		@ sp needed
 477 0010 5DF8047B 		ldr	r7, [sp], #4
 478              		.cfi_restore 7
 479              		.cfi_def_cfa_offset 0
 480 0014 7047     		bx	lr
 481              		.cfi_endproc
 482              	.LFE1480:
 484              		.weak	_ZN5daisy11AudioHandleD1Ev
 485              		.thumb_set _ZN5daisy11AudioHandleD1Ev,_ZN5daisy11AudioHandleD2Ev
 486              		.section	.text._ZN5daisy9AdcHandleC2Ev,"axG",%progbits,_ZN5daisy9AdcHandleC5Ev,comdat
 487              		.align	1
 488              		.weak	_ZN5daisy9AdcHandleC2Ev
 489              		.syntax unified
 490              		.thumb
 491              		.thumb_func
 493              	_ZN5daisy9AdcHandleC2Ev:
 494              	.LFB1483:
 495              		.file 9 "../../../../libs/libDaisy/src/per/adc.h"
   1:../../../../libs/libDaisy/src/per/adc.h **** #pragma once
   2:../../../../libs/libDaisy/src/per/adc.h **** #ifndef DSY_ADC_H
   3:../../../../libs/libDaisy/src/per/adc.h **** #define DSY_ADC_H /**< Macro */
   4:../../../../libs/libDaisy/src/per/adc.h **** #include <stdint.h>
   5:../../../../libs/libDaisy/src/per/adc.h **** #include <stdlib.h>
ARM GAS  /var/folders/f7/sjskzmt15v119_37bs_xt4r00000gn/T//cc3cAasR.s 			page 28


   6:../../../../libs/libDaisy/src/per/adc.h **** #include "daisy_core.h"
   7:../../../../libs/libDaisy/src/per/adc.h **** #include "per/gpio.h"
   8:../../../../libs/libDaisy/src/per/adc.h **** 
   9:../../../../libs/libDaisy/src/per/adc.h **** #define DSY_ADC_MAX_CHANNELS 16 /**< Maximum number of ADC channels */
  10:../../../../libs/libDaisy/src/per/adc.h **** 
  11:../../../../libs/libDaisy/src/per/adc.h **** namespace daisy
  12:../../../../libs/libDaisy/src/per/adc.h **** {
  13:../../../../libs/libDaisy/src/per/adc.h **** /** @addtogroup analog_digital_conversion
  14:../../../../libs/libDaisy/src/per/adc.h ****     @{
  15:../../../../libs/libDaisy/src/per/adc.h **** */
  16:../../../../libs/libDaisy/src/per/adc.h **** 
  17:../../../../libs/libDaisy/src/per/adc.h **** /* While there may not be many configuration options here,
  18:../../../../libs/libDaisy/src/per/adc.h **** using a struct like this allows us to add more configuration
  19:../../../../libs/libDaisy/src/per/adc.h **** later without breaking existing functionality.
  20:../../../../libs/libDaisy/src/per/adc.h **** */
  21:../../../../libs/libDaisy/src/per/adc.h **** 
  22:../../../../libs/libDaisy/src/per/adc.h **** /** Configuration Structure for a given channel */
  23:../../../../libs/libDaisy/src/per/adc.h **** struct AdcChannelConfig
  24:../../../../libs/libDaisy/src/per/adc.h **** {
  25:../../../../libs/libDaisy/src/per/adc.h ****     /** Which pin to use for multiplexing */
  26:../../../../libs/libDaisy/src/per/adc.h ****     enum MuxPin
  27:../../../../libs/libDaisy/src/per/adc.h ****     {
  28:../../../../libs/libDaisy/src/per/adc.h ****         MUX_SEL_0,    /**< & */
  29:../../../../libs/libDaisy/src/per/adc.h ****         MUX_SEL_1,    /**< & */
  30:../../../../libs/libDaisy/src/per/adc.h ****         MUX_SEL_2,    /**< & */
  31:../../../../libs/libDaisy/src/per/adc.h ****         MUX_SEL_LAST, /**< & */
  32:../../../../libs/libDaisy/src/per/adc.h ****     };
  33:../../../../libs/libDaisy/src/per/adc.h **** 
  34:../../../../libs/libDaisy/src/per/adc.h ****     /** Initializes a single ADC pin as an ADC. 
  35:../../../../libs/libDaisy/src/per/adc.h ****     \param pin Pin to init.
  36:../../../../libs/libDaisy/src/per/adc.h ****      */
  37:../../../../libs/libDaisy/src/per/adc.h ****     void InitSingle(dsy_gpio_pin pin);
  38:../../../../libs/libDaisy/src/per/adc.h **** 
  39:../../../../libs/libDaisy/src/per/adc.h ****     /** 
  40:../../../../libs/libDaisy/src/per/adc.h ****     Initializes a single ADC pin as a Multiplexed ADC.
  41:../../../../libs/libDaisy/src/per/adc.h ****     Requires a CD405X Multiplexer connected to the pin.
  42:../../../../libs/libDaisy/src/per/adc.h ****     You only need to supply the mux pins that are required,
  43:../../../../libs/libDaisy/src/per/adc.h ****     e.g. a 4052 mux would only require mux_0 and mux_1.
  44:../../../../libs/libDaisy/src/per/adc.h ****     Internal Callbacks handle the pin addressing.
  45:../../../../libs/libDaisy/src/per/adc.h ****     \param mux_channels must be 1-8
  46:../../../../libs/libDaisy/src/per/adc.h ****     \param mux_0 First mux pin
  47:../../../../libs/libDaisy/src/per/adc.h ****     \param mux_1 Second mux pin
  48:../../../../libs/libDaisy/src/per/adc.h ****     \param mux_2 Third mux pin
  49:../../../../libs/libDaisy/src/per/adc.h ****     \param adc_pin &
  50:../../../../libs/libDaisy/src/per/adc.h ****     */
  51:../../../../libs/libDaisy/src/per/adc.h ****     void InitMux(dsy_gpio_pin adc_pin,
  52:../../../../libs/libDaisy/src/per/adc.h ****                  size_t       mux_channels,
  53:../../../../libs/libDaisy/src/per/adc.h ****                  dsy_gpio_pin mux_0,
  54:../../../../libs/libDaisy/src/per/adc.h ****                  dsy_gpio_pin mux_1 = {DSY_GPIOX, 0},
  55:../../../../libs/libDaisy/src/per/adc.h ****                  dsy_gpio_pin mux_2 = {DSY_GPIOX, 0});
  56:../../../../libs/libDaisy/src/per/adc.h **** 
  57:../../../../libs/libDaisy/src/per/adc.h ****     dsy_gpio pin_;                   /**< & */
  58:../../../../libs/libDaisy/src/per/adc.h ****     dsy_gpio mux_pin_[MUX_SEL_LAST]; /**< & */
  59:../../../../libs/libDaisy/src/per/adc.h ****     uint8_t  mux_channels_;          /**< & */
  60:../../../../libs/libDaisy/src/per/adc.h **** };
  61:../../../../libs/libDaisy/src/per/adc.h **** 
  62:../../../../libs/libDaisy/src/per/adc.h **** /**
ARM GAS  /var/folders/f7/sjskzmt15v119_37bs_xt4r00000gn/T//cc3cAasR.s 			page 29


  63:../../../../libs/libDaisy/src/per/adc.h ****    Handler for analog to digital conversion
  64:../../../../libs/libDaisy/src/per/adc.h **** */
  65:../../../../libs/libDaisy/src/per/adc.h **** class AdcHandle
  66:../../../../libs/libDaisy/src/per/adc.h **** {
  67:../../../../libs/libDaisy/src/per/adc.h ****   public:
  68:../../../../libs/libDaisy/src/per/adc.h ****     /** Supported oversampling amounts */
  69:../../../../libs/libDaisy/src/per/adc.h ****     enum OverSampling
  70:../../../../libs/libDaisy/src/per/adc.h ****     {
  71:../../../../libs/libDaisy/src/per/adc.h ****         OVS_NONE, /**< & */
  72:../../../../libs/libDaisy/src/per/adc.h ****         OVS_4,    /**< & */
  73:../../../../libs/libDaisy/src/per/adc.h ****         OVS_8,    /**< & */
  74:../../../../libs/libDaisy/src/per/adc.h ****         OVS_16,   /**< & */
  75:../../../../libs/libDaisy/src/per/adc.h ****         OVS_32,   /**< & */
  76:../../../../libs/libDaisy/src/per/adc.h ****         OVS_64,   /**< & */
  77:../../../../libs/libDaisy/src/per/adc.h ****         OVS_128,  /**< & */
  78:../../../../libs/libDaisy/src/per/adc.h ****         OVS_256,  /**< & */
  79:../../../../libs/libDaisy/src/per/adc.h ****         OVS_512,  /**< & */
  80:../../../../libs/libDaisy/src/per/adc.h ****         OVS_1024, /**< & */
  81:../../../../libs/libDaisy/src/per/adc.h ****         OVS_LAST, /**< & */
  82:../../../../libs/libDaisy/src/per/adc.h ****     };
  83:../../../../libs/libDaisy/src/per/adc.h **** 
  84:../../../../libs/libDaisy/src/per/adc.h ****     AdcHandle() {}
 496              		.loc 9 84 5
 497              		.cfi_startproc
 498              		@ args = 0, pretend = 0, frame = 8
 499              		@ frame_needed = 1, uses_anonymous_args = 0
 500              		@ link register save eliminated.
 501 0000 80B4     		push	{r7}
 502              		.cfi_def_cfa_offset 4
 503              		.cfi_offset 7, -4
 504 0002 83B0     		sub	sp, sp, #12
 505              		.cfi_def_cfa_offset 16
 506 0004 00AF     		add	r7, sp, #0
 507              		.cfi_def_cfa_register 7
 508 0006 7860     		str	r0, [r7, #4]
 509              		.loc 9 84 18
 510 0008 7B68     		ldr	r3, [r7, #4]
 511 000a 1846     		mov	r0, r3
 512 000c 0C37     		adds	r7, r7, #12
 513              		.cfi_def_cfa_offset 4
 514 000e BD46     		mov	sp, r7
 515              		.cfi_def_cfa_register 13
 516              		@ sp needed
 517 0010 5DF8047B 		ldr	r7, [sp], #4
 518              		.cfi_restore 7
 519              		.cfi_def_cfa_offset 0
 520 0014 7047     		bx	lr
 521              		.cfi_endproc
 522              	.LFE1483:
 524              		.weak	_ZN5daisy9AdcHandleC1Ev
 525              		.thumb_set _ZN5daisy9AdcHandleC1Ev,_ZN5daisy9AdcHandleC2Ev
 526              		.section	.text._ZN5daisy9AdcHandleD2Ev,"axG",%progbits,_ZN5daisy9AdcHandleD5Ev,comdat
 527              		.align	1
 528              		.weak	_ZN5daisy9AdcHandleD2Ev
 529              		.syntax unified
 530              		.thumb
 531              		.thumb_func
ARM GAS  /var/folders/f7/sjskzmt15v119_37bs_xt4r00000gn/T//cc3cAasR.s 			page 30


 533              	_ZN5daisy9AdcHandleD2Ev:
 534              	.LFB1486:
  85:../../../../libs/libDaisy/src/per/adc.h ****     ~AdcHandle() {}
 535              		.loc 9 85 5
 536              		.cfi_startproc
 537              		@ args = 0, pretend = 0, frame = 8
 538              		@ frame_needed = 1, uses_anonymous_args = 0
 539              		@ link register save eliminated.
 540 0000 80B4     		push	{r7}
 541              		.cfi_def_cfa_offset 4
 542              		.cfi_offset 7, -4
 543 0002 83B0     		sub	sp, sp, #12
 544              		.cfi_def_cfa_offset 16
 545 0004 00AF     		add	r7, sp, #0
 546              		.cfi_def_cfa_register 7
 547 0006 7860     		str	r0, [r7, #4]
 548              		.loc 9 85 19
 549 0008 7B68     		ldr	r3, [r7, #4]
 550 000a 1846     		mov	r0, r3
 551 000c 0C37     		adds	r7, r7, #12
 552              		.cfi_def_cfa_offset 4
 553 000e BD46     		mov	sp, r7
 554              		.cfi_def_cfa_register 13
 555              		@ sp needed
 556 0010 5DF8047B 		ldr	r7, [sp], #4
 557              		.cfi_restore 7
 558              		.cfi_def_cfa_offset 0
 559 0014 7047     		bx	lr
 560              		.cfi_endproc
 561              	.LFE1486:
 563              		.weak	_ZN5daisy9AdcHandleD1Ev
 564              		.thumb_set _ZN5daisy9AdcHandleD1Ev,_ZN5daisy9AdcHandleD2Ev
 565              		.section	.text._ZN5daisy11UartHandlerC2Ev,"axG",%progbits,_ZN5daisy11UartHandlerC5Ev,comdat
 566              		.align	1
 567              		.weak	_ZN5daisy11UartHandlerC2Ev
 568              		.syntax unified
 569              		.thumb
 570              		.thumb_func
 572              	_ZN5daisy11UartHandlerC2Ev:
 573              	.LFB1489:
 574              		.file 10 "../../../../libs/libDaisy/src/per/uart.h"
   1:../../../../libs/libDaisy/src/per/uart.h **** /* 
   2:../../../../libs/libDaisy/src/per/uart.h **** TODO
   3:../../../../libs/libDaisy/src/per/uart.h **** - UART1 defaults to DMA, add flexible config for DMA on all periphs
   4:../../../../libs/libDaisy/src/per/uart.h **** - Transmit function improvements.
   5:../../../../libs/libDaisy/src/per/uart.h **** - Overflow handling, etc. for Rx Queue.
   6:../../../../libs/libDaisy/src/per/uart.h **** */
   7:../../../../libs/libDaisy/src/per/uart.h **** 
   8:../../../../libs/libDaisy/src/per/uart.h **** #pragma once
   9:../../../../libs/libDaisy/src/per/uart.h **** #ifndef DSY_UART_H
  10:../../../../libs/libDaisy/src/per/uart.h **** #define DSY_UART_H /**< macro */
  11:../../../../libs/libDaisy/src/per/uart.h **** #include "daisy_core.h"
  12:../../../../libs/libDaisy/src/per/uart.h **** 
  13:../../../../libs/libDaisy/src/per/uart.h **** 
  14:../../../../libs/libDaisy/src/per/uart.h **** namespace daisy
  15:../../../../libs/libDaisy/src/per/uart.h **** {
  16:../../../../libs/libDaisy/src/per/uart.h **** /** @addtogroup serial
ARM GAS  /var/folders/f7/sjskzmt15v119_37bs_xt4r00000gn/T//cc3cAasR.s 			page 31


  17:../../../../libs/libDaisy/src/per/uart.h ****     @{
  18:../../../../libs/libDaisy/src/per/uart.h ****     */
  19:../../../../libs/libDaisy/src/per/uart.h **** 
  20:../../../../libs/libDaisy/src/per/uart.h **** /** 
  21:../../../../libs/libDaisy/src/per/uart.h ****     Uart Peripheral
  22:../../../../libs/libDaisy/src/per/uart.h ****     @author shensley
  23:../../../../libs/libDaisy/src/per/uart.h ****     @date March 2020
  24:../../../../libs/libDaisy/src/per/uart.h ****     */
  25:../../../../libs/libDaisy/src/per/uart.h **** class UartHandler
  26:../../../../libs/libDaisy/src/per/uart.h **** {
  27:../../../../libs/libDaisy/src/per/uart.h ****   public:
  28:../../../../libs/libDaisy/src/per/uart.h ****     struct Config
  29:../../../../libs/libDaisy/src/per/uart.h ****     {
  30:../../../../libs/libDaisy/src/per/uart.h ****         enum class Peripheral
  31:../../../../libs/libDaisy/src/per/uart.h ****         {
  32:../../../../libs/libDaisy/src/per/uart.h ****             USART_1,
  33:../../../../libs/libDaisy/src/per/uart.h ****             USART_2,
  34:../../../../libs/libDaisy/src/per/uart.h ****             USART_3,
  35:../../../../libs/libDaisy/src/per/uart.h ****             UART_4,
  36:../../../../libs/libDaisy/src/per/uart.h ****             UART_5,
  37:../../../../libs/libDaisy/src/per/uart.h ****             USART_6,
  38:../../../../libs/libDaisy/src/per/uart.h ****             UART_7,
  39:../../../../libs/libDaisy/src/per/uart.h ****             UART_8,
  40:../../../../libs/libDaisy/src/per/uart.h ****             LPUART_1,
  41:../../../../libs/libDaisy/src/per/uart.h ****         };
  42:../../../../libs/libDaisy/src/per/uart.h **** 
  43:../../../../libs/libDaisy/src/per/uart.h ****         enum class StopBits
  44:../../../../libs/libDaisy/src/per/uart.h ****         {
  45:../../../../libs/libDaisy/src/per/uart.h ****             BITS_0_5,
  46:../../../../libs/libDaisy/src/per/uart.h ****             BITS_1,
  47:../../../../libs/libDaisy/src/per/uart.h ****             BITS_1_5,
  48:../../../../libs/libDaisy/src/per/uart.h ****             BITS_2,
  49:../../../../libs/libDaisy/src/per/uart.h ****         };
  50:../../../../libs/libDaisy/src/per/uart.h **** 
  51:../../../../libs/libDaisy/src/per/uart.h ****         enum class Parity
  52:../../../../libs/libDaisy/src/per/uart.h ****         {
  53:../../../../libs/libDaisy/src/per/uart.h ****             NONE,
  54:../../../../libs/libDaisy/src/per/uart.h ****             EVEN,
  55:../../../../libs/libDaisy/src/per/uart.h ****             ODD,
  56:../../../../libs/libDaisy/src/per/uart.h ****         };
  57:../../../../libs/libDaisy/src/per/uart.h **** 
  58:../../../../libs/libDaisy/src/per/uart.h ****         enum class Mode
  59:../../../../libs/libDaisy/src/per/uart.h ****         {
  60:../../../../libs/libDaisy/src/per/uart.h ****             RX,
  61:../../../../libs/libDaisy/src/per/uart.h ****             TX,
  62:../../../../libs/libDaisy/src/per/uart.h ****             TX_RX,
  63:../../../../libs/libDaisy/src/per/uart.h ****         };
  64:../../../../libs/libDaisy/src/per/uart.h **** 
  65:../../../../libs/libDaisy/src/per/uart.h ****         enum class WordLength
  66:../../../../libs/libDaisy/src/per/uart.h ****         {
  67:../../../../libs/libDaisy/src/per/uart.h ****             BITS_7,
  68:../../../../libs/libDaisy/src/per/uart.h ****             BITS_8,
  69:../../../../libs/libDaisy/src/per/uart.h ****             BITS_9,
  70:../../../../libs/libDaisy/src/per/uart.h ****         };
  71:../../../../libs/libDaisy/src/per/uart.h **** 
  72:../../../../libs/libDaisy/src/per/uart.h ****         struct
  73:../../../../libs/libDaisy/src/per/uart.h ****         {
ARM GAS  /var/folders/f7/sjskzmt15v119_37bs_xt4r00000gn/T//cc3cAasR.s 			page 32


  74:../../../../libs/libDaisy/src/per/uart.h ****             dsy_gpio_pin tx; /**< & */
  75:../../../../libs/libDaisy/src/per/uart.h ****             dsy_gpio_pin rx; /**< & */
  76:../../../../libs/libDaisy/src/per/uart.h ****         } pin_config;        /**< & */
  77:../../../../libs/libDaisy/src/per/uart.h **** 
  78:../../../../libs/libDaisy/src/per/uart.h ****         Peripheral periph;
  79:../../../../libs/libDaisy/src/per/uart.h ****         StopBits   stopbits;
  80:../../../../libs/libDaisy/src/per/uart.h ****         Parity     parity;
  81:../../../../libs/libDaisy/src/per/uart.h ****         Mode       mode;
  82:../../../../libs/libDaisy/src/per/uart.h ****         WordLength wordlength;
  83:../../../../libs/libDaisy/src/per/uart.h ****         uint32_t   baudrate;
  84:../../../../libs/libDaisy/src/per/uart.h ****     };
  85:../../../../libs/libDaisy/src/per/uart.h **** 
  86:../../../../libs/libDaisy/src/per/uart.h **** 
  87:../../../../libs/libDaisy/src/per/uart.h ****     UartHandler() : pimpl_(nullptr) {}
 575              		.loc 10 87 5
 576              		.cfi_startproc
 577              		@ args = 0, pretend = 0, frame = 8
 578              		@ frame_needed = 1, uses_anonymous_args = 0
 579              		@ link register save eliminated.
 580 0000 80B4     		push	{r7}
 581              		.cfi_def_cfa_offset 4
 582              		.cfi_offset 7, -4
 583 0002 83B0     		sub	sp, sp, #12
 584              		.cfi_def_cfa_offset 16
 585 0004 00AF     		add	r7, sp, #0
 586              		.cfi_def_cfa_register 7
 587 0006 7860     		str	r0, [r7, #4]
 588              	.LBB301:
 589              		.loc 10 87 21
 590 0008 7B68     		ldr	r3, [r7, #4]
 591 000a 0022     		movs	r2, #0
 592 000c 1A60     		str	r2, [r3]
 593              	.LBE301:
 594              		.loc 10 87 38
 595 000e 7B68     		ldr	r3, [r7, #4]
 596 0010 1846     		mov	r0, r3
 597 0012 0C37     		adds	r7, r7, #12
 598              		.cfi_def_cfa_offset 4
 599 0014 BD46     		mov	sp, r7
 600              		.cfi_def_cfa_register 13
 601              		@ sp needed
 602 0016 5DF8047B 		ldr	r7, [sp], #4
 603              		.cfi_restore 7
 604              		.cfi_def_cfa_offset 0
 605 001a 7047     		bx	lr
 606              		.cfi_endproc
 607              	.LFE1489:
 609              		.weak	_ZN5daisy11UartHandlerC1Ev
 610              		.thumb_set _ZN5daisy11UartHandlerC1Ev,_ZN5daisy11UartHandlerC2Ev
 611              		.section	.text._ZN5daisy9UsbHandleC2Ev,"axG",%progbits,_ZN5daisy9UsbHandleC5Ev,comdat
 612              		.align	1
 613              		.weak	_ZN5daisy9UsbHandleC2Ev
 614              		.syntax unified
 615              		.thumb
 616              		.thumb_func
 618              	_ZN5daisy9UsbHandleC2Ev:
 619              	.LFB1857:
ARM GAS  /var/folders/f7/sjskzmt15v119_37bs_xt4r00000gn/T//cc3cAasR.s 			page 33


 620              		.file 11 "../../../../libs/libDaisy/src/hid/usb.h"
   1:../../../../libs/libDaisy/src/hid/usb.h **** #pragma once
   2:../../../../libs/libDaisy/src/hid/usb.h **** #ifndef DSY_HID_USB_H
   3:../../../../libs/libDaisy/src/hid/usb.h **** #define DSY_HID_USB_H
   4:../../../../libs/libDaisy/src/hid/usb.h **** #include <stdint.h>
   5:../../../../libs/libDaisy/src/hid/usb.h **** #include <stdlib.h>
   6:../../../../libs/libDaisy/src/hid/usb.h **** 
   7:../../../../libs/libDaisy/src/hid/usb.h **** namespace daisy
   8:../../../../libs/libDaisy/src/hid/usb.h **** /** @addtogroup externals
   9:../../../../libs/libDaisy/src/hid/usb.h ****     @{
  10:../../../../libs/libDaisy/src/hid/usb.h **** */
  11:../../../../libs/libDaisy/src/hid/usb.h **** 
  12:../../../../libs/libDaisy/src/hid/usb.h **** {
  13:../../../../libs/libDaisy/src/hid/usb.h **** /** 
  14:../../../../libs/libDaisy/src/hid/usb.h ****     @brief Interface for initializing and using the USB Peripherals on the daisy
  15:../../../../libs/libDaisy/src/hid/usb.h ****     @author Stephen Hensley
  16:../../../../libs/libDaisy/src/hid/usb.h ****     @date December 2019
  17:../../../../libs/libDaisy/src/hid/usb.h **** */
  18:../../../../libs/libDaisy/src/hid/usb.h **** class UsbHandle
  19:../../../../libs/libDaisy/src/hid/usb.h **** {
  20:../../../../libs/libDaisy/src/hid/usb.h ****   public:
  21:../../../../libs/libDaisy/src/hid/usb.h ****     /** Return values for USBHandle Functions */
  22:../../../../libs/libDaisy/src/hid/usb.h ****     enum class Result
  23:../../../../libs/libDaisy/src/hid/usb.h ****     {
  24:../../../../libs/libDaisy/src/hid/usb.h ****         OK,
  25:../../../../libs/libDaisy/src/hid/usb.h ****         ERR,
  26:../../../../libs/libDaisy/src/hid/usb.h ****     };
  27:../../../../libs/libDaisy/src/hid/usb.h **** 
  28:../../../../libs/libDaisy/src/hid/usb.h ****     /** Specified which of the two USB Peripherals to initialize. */
  29:../../../../libs/libDaisy/src/hid/usb.h ****     enum UsbPeriph
  30:../../../../libs/libDaisy/src/hid/usb.h ****     {
  31:../../../../libs/libDaisy/src/hid/usb.h ****         FS_INTERNAL, /**< Internal pin */
  32:../../../../libs/libDaisy/src/hid/usb.h ****         FS_EXTERNAL, /**< FS External D+ pin is Pin 38 (GPIO32). FS External D- pin is Pin 37 (GPIO
  33:../../../../libs/libDaisy/src/hid/usb.h ****         FS_BOTH,     /**< Both */
  34:../../../../libs/libDaisy/src/hid/usb.h ****     };
  35:../../../../libs/libDaisy/src/hid/usb.h **** 
  36:../../../../libs/libDaisy/src/hid/usb.h **** 
  37:../../../../libs/libDaisy/src/hid/usb.h ****     /** Function called upon reception of a buffer */
  38:../../../../libs/libDaisy/src/hid/usb.h ****     typedef void (*ReceiveCallback)(uint8_t* buff, uint32_t* len);
  39:../../../../libs/libDaisy/src/hid/usb.h **** 
  40:../../../../libs/libDaisy/src/hid/usb.h ****     UsbHandle() {}
 621              		.loc 11 40 5
 622              		.cfi_startproc
 623              		@ args = 0, pretend = 0, frame = 8
 624              		@ frame_needed = 1, uses_anonymous_args = 0
 625              		@ link register save eliminated.
 626 0000 80B4     		push	{r7}
 627              		.cfi_def_cfa_offset 4
 628              		.cfi_offset 7, -4
 629 0002 83B0     		sub	sp, sp, #12
 630              		.cfi_def_cfa_offset 16
 631 0004 00AF     		add	r7, sp, #0
 632              		.cfi_def_cfa_register 7
 633 0006 7860     		str	r0, [r7, #4]
 634              		.loc 11 40 18
 635 0008 7B68     		ldr	r3, [r7, #4]
 636 000a 1846     		mov	r0, r3
ARM GAS  /var/folders/f7/sjskzmt15v119_37bs_xt4r00000gn/T//cc3cAasR.s 			page 34


 637 000c 0C37     		adds	r7, r7, #12
 638              		.cfi_def_cfa_offset 4
 639 000e BD46     		mov	sp, r7
 640              		.cfi_def_cfa_register 13
 641              		@ sp needed
 642 0010 5DF8047B 		ldr	r7, [sp], #4
 643              		.cfi_restore 7
 644              		.cfi_def_cfa_offset 0
 645 0014 7047     		bx	lr
 646              		.cfi_endproc
 647              	.LFE1857:
 649              		.weak	_ZN5daisy9UsbHandleC1Ev
 650              		.thumb_set _ZN5daisy9UsbHandleC1Ev,_ZN5daisy9UsbHandleC2Ev
 651              		.section	.text._ZN5daisy9UsbHandleD2Ev,"axG",%progbits,_ZN5daisy9UsbHandleD5Ev,comdat
 652              		.align	1
 653              		.weak	_ZN5daisy9UsbHandleD2Ev
 654              		.syntax unified
 655              		.thumb
 656              		.thumb_func
 658              	_ZN5daisy9UsbHandleD2Ev:
 659              	.LFB1860:
  41:../../../../libs/libDaisy/src/hid/usb.h **** 
  42:../../../../libs/libDaisy/src/hid/usb.h ****     ~UsbHandle() {}
 660              		.loc 11 42 5
 661              		.cfi_startproc
 662              		@ args = 0, pretend = 0, frame = 8
 663              		@ frame_needed = 1, uses_anonymous_args = 0
 664              		@ link register save eliminated.
 665 0000 80B4     		push	{r7}
 666              		.cfi_def_cfa_offset 4
 667              		.cfi_offset 7, -4
 668 0002 83B0     		sub	sp, sp, #12
 669              		.cfi_def_cfa_offset 16
 670 0004 00AF     		add	r7, sp, #0
 671              		.cfi_def_cfa_register 7
 672 0006 7860     		str	r0, [r7, #4]
 673              		.loc 11 42 19
 674 0008 7B68     		ldr	r3, [r7, #4]
 675 000a 1846     		mov	r0, r3
 676 000c 0C37     		adds	r7, r7, #12
 677              		.cfi_def_cfa_offset 4
 678 000e BD46     		mov	sp, r7
 679              		.cfi_def_cfa_register 13
 680              		@ sp needed
 681 0010 5DF8047B 		ldr	r7, [sp], #4
 682              		.cfi_restore 7
 683              		.cfi_def_cfa_offset 0
 684 0014 7047     		bx	lr
 685              		.cfi_endproc
 686              	.LFE1860:
 688              		.weak	_ZN5daisy9UsbHandleD1Ev
 689              		.thumb_set _ZN5daisy9UsbHandleD1Ev,_ZN5daisy9UsbHandleD2Ev
 690              		.section	.text._ZN5daisy9SpiHandleC2Ev,"axG",%progbits,_ZN5daisy9SpiHandleC5Ev,comdat
 691              		.align	1
 692              		.weak	_ZN5daisy9SpiHandleC2Ev
 693              		.syntax unified
 694              		.thumb
ARM GAS  /var/folders/f7/sjskzmt15v119_37bs_xt4r00000gn/T//cc3cAasR.s 			page 35


 695              		.thumb_func
 697              	_ZN5daisy9SpiHandleC2Ev:
 698              	.LFB1889:
 699              		.file 12 "../../../../libs/libDaisy/src/per/spi.h"
   1:../../../../libs/libDaisy/src/per/spi.h **** #pragma once
   2:../../../../libs/libDaisy/src/per/spi.h **** #ifndef DSY_SPI_H
   3:../../../../libs/libDaisy/src/per/spi.h **** #define DSY_SPI_H
   4:../../../../libs/libDaisy/src/per/spi.h **** 
   5:../../../../libs/libDaisy/src/per/spi.h **** #include "daisy_core.h"
   6:../../../../libs/libDaisy/src/per/spi.h **** 
   7:../../../../libs/libDaisy/src/per/spi.h **** /* TODO:
   8:../../../../libs/libDaisy/src/per/spi.h **** - Add documentation
   9:../../../../libs/libDaisy/src/per/spi.h **** - Add reception
  10:../../../../libs/libDaisy/src/per/spi.h **** - Add IT
  11:../../../../libs/libDaisy/src/per/spi.h **** - Add DMA
  12:../../../../libs/libDaisy/src/per/spi.h **** */
  13:../../../../libs/libDaisy/src/per/spi.h **** 
  14:../../../../libs/libDaisy/src/per/spi.h **** namespace daisy
  15:../../../../libs/libDaisy/src/per/spi.h **** {
  16:../../../../libs/libDaisy/src/per/spi.h **** /** @addtogroup serial
  17:../../../../libs/libDaisy/src/per/spi.h **** @{
  18:../../../../libs/libDaisy/src/per/spi.h **** */
  19:../../../../libs/libDaisy/src/per/spi.h **** 
  20:../../../../libs/libDaisy/src/per/spi.h **** /**  Handler for serial peripheral interface */
  21:../../../../libs/libDaisy/src/per/spi.h **** class SpiHandle
  22:../../../../libs/libDaisy/src/per/spi.h **** {
  23:../../../../libs/libDaisy/src/per/spi.h ****   public:
  24:../../../../libs/libDaisy/src/per/spi.h ****     struct Config
  25:../../../../libs/libDaisy/src/per/spi.h ****     {
  26:../../../../libs/libDaisy/src/per/spi.h ****         enum class Peripheral
  27:../../../../libs/libDaisy/src/per/spi.h ****         {
  28:../../../../libs/libDaisy/src/per/spi.h ****             SPI_1,
  29:../../../../libs/libDaisy/src/per/spi.h ****             SPI_2,
  30:../../../../libs/libDaisy/src/per/spi.h ****             SPI_3,
  31:../../../../libs/libDaisy/src/per/spi.h ****             SPI_4,
  32:../../../../libs/libDaisy/src/per/spi.h ****             SPI_5,
  33:../../../../libs/libDaisy/src/per/spi.h ****             SPI_6,
  34:../../../../libs/libDaisy/src/per/spi.h ****         };
  35:../../../../libs/libDaisy/src/per/spi.h **** 
  36:../../../../libs/libDaisy/src/per/spi.h ****         enum class Mode
  37:../../../../libs/libDaisy/src/per/spi.h ****         {
  38:../../../../libs/libDaisy/src/per/spi.h ****             MASTER,
  39:../../../../libs/libDaisy/src/per/spi.h ****             SLAVE,
  40:../../../../libs/libDaisy/src/per/spi.h ****         };
  41:../../../../libs/libDaisy/src/per/spi.h **** 
  42:../../../../libs/libDaisy/src/per/spi.h ****         enum class Direction
  43:../../../../libs/libDaisy/src/per/spi.h ****         {
  44:../../../../libs/libDaisy/src/per/spi.h ****             TWO_LINES,
  45:../../../../libs/libDaisy/src/per/spi.h ****             TWO_LINES_TX_ONLY,
  46:../../../../libs/libDaisy/src/per/spi.h ****             TWO_LINES_RX_ONLY,
  47:../../../../libs/libDaisy/src/per/spi.h ****             ONE_LINE,
  48:../../../../libs/libDaisy/src/per/spi.h ****         };
  49:../../../../libs/libDaisy/src/per/spi.h **** 
  50:../../../../libs/libDaisy/src/per/spi.h ****         enum class ClockPolarity
  51:../../../../libs/libDaisy/src/per/spi.h ****         {
  52:../../../../libs/libDaisy/src/per/spi.h ****             LOW,
  53:../../../../libs/libDaisy/src/per/spi.h ****             HIGH,
ARM GAS  /var/folders/f7/sjskzmt15v119_37bs_xt4r00000gn/T//cc3cAasR.s 			page 36


  54:../../../../libs/libDaisy/src/per/spi.h ****         };
  55:../../../../libs/libDaisy/src/per/spi.h **** 
  56:../../../../libs/libDaisy/src/per/spi.h ****         enum class ClockPhase
  57:../../../../libs/libDaisy/src/per/spi.h ****         {
  58:../../../../libs/libDaisy/src/per/spi.h ****             ONE_EDGE,
  59:../../../../libs/libDaisy/src/per/spi.h ****             TWO_EDGE,
  60:../../../../libs/libDaisy/src/per/spi.h ****         };
  61:../../../../libs/libDaisy/src/per/spi.h **** 
  62:../../../../libs/libDaisy/src/per/spi.h ****         enum class NSS
  63:../../../../libs/libDaisy/src/per/spi.h ****         {
  64:../../../../libs/libDaisy/src/per/spi.h ****             SOFT,
  65:../../../../libs/libDaisy/src/per/spi.h ****             HARD_INPUT,
  66:../../../../libs/libDaisy/src/per/spi.h ****             HARD_OUTPUT,
  67:../../../../libs/libDaisy/src/per/spi.h ****         };
  68:../../../../libs/libDaisy/src/per/spi.h **** 
  69:../../../../libs/libDaisy/src/per/spi.h ****         enum class BaudPrescaler
  70:../../../../libs/libDaisy/src/per/spi.h ****         {
  71:../../../../libs/libDaisy/src/per/spi.h ****             PS_2,
  72:../../../../libs/libDaisy/src/per/spi.h ****             PS_4,
  73:../../../../libs/libDaisy/src/per/spi.h ****             PS_8,
  74:../../../../libs/libDaisy/src/per/spi.h ****             PS_16,
  75:../../../../libs/libDaisy/src/per/spi.h ****             PS_32,
  76:../../../../libs/libDaisy/src/per/spi.h ****             PS_64,
  77:../../../../libs/libDaisy/src/per/spi.h ****             PS_128,
  78:../../../../libs/libDaisy/src/per/spi.h ****             PS_256,
  79:../../../../libs/libDaisy/src/per/spi.h ****         };
  80:../../../../libs/libDaisy/src/per/spi.h **** 
  81:../../../../libs/libDaisy/src/per/spi.h ****         struct
  82:../../../../libs/libDaisy/src/per/spi.h ****         {
  83:../../../../libs/libDaisy/src/per/spi.h ****             dsy_gpio_pin sclk; /**< & */
  84:../../../../libs/libDaisy/src/per/spi.h ****             dsy_gpio_pin miso; /**< & */
  85:../../../../libs/libDaisy/src/per/spi.h ****             dsy_gpio_pin mosi; /**< & */
  86:../../../../libs/libDaisy/src/per/spi.h ****             dsy_gpio_pin nss;  /**< & */
  87:../../../../libs/libDaisy/src/per/spi.h ****         } pin_config;
  88:../../../../libs/libDaisy/src/per/spi.h **** 
  89:../../../../libs/libDaisy/src/per/spi.h ****         Peripheral    periph;
  90:../../../../libs/libDaisy/src/per/spi.h ****         Mode          mode;
  91:../../../../libs/libDaisy/src/per/spi.h ****         Direction     direction;
  92:../../../../libs/libDaisy/src/per/spi.h ****         unsigned long datasize;
  93:../../../../libs/libDaisy/src/per/spi.h ****         ClockPolarity clock_polarity;
  94:../../../../libs/libDaisy/src/per/spi.h ****         ClockPhase    clock_phase;
  95:../../../../libs/libDaisy/src/per/spi.h ****         NSS           nss;
  96:../../../../libs/libDaisy/src/per/spi.h ****         BaudPrescaler baud_prescaler;
  97:../../../../libs/libDaisy/src/per/spi.h ****     };
  98:../../../../libs/libDaisy/src/per/spi.h **** 
  99:../../../../libs/libDaisy/src/per/spi.h ****     SpiHandle() : pimpl_(nullptr) {}
 700              		.loc 12 99 5
 701              		.cfi_startproc
 702              		@ args = 0, pretend = 0, frame = 8
 703              		@ frame_needed = 1, uses_anonymous_args = 0
 704              		@ link register save eliminated.
 705 0000 80B4     		push	{r7}
 706              		.cfi_def_cfa_offset 4
 707              		.cfi_offset 7, -4
 708 0002 83B0     		sub	sp, sp, #12
 709              		.cfi_def_cfa_offset 16
 710 0004 00AF     		add	r7, sp, #0
ARM GAS  /var/folders/f7/sjskzmt15v119_37bs_xt4r00000gn/T//cc3cAasR.s 			page 37


 711              		.cfi_def_cfa_register 7
 712 0006 7860     		str	r0, [r7, #4]
 713              	.LBB302:
 714              		.loc 12 99 19
 715 0008 7B68     		ldr	r3, [r7, #4]
 716 000a 0022     		movs	r2, #0
 717 000c 1A60     		str	r2, [r3]
 718              	.LBE302:
 719              		.loc 12 99 36
 720 000e 7B68     		ldr	r3, [r7, #4]
 721 0010 1846     		mov	r0, r3
 722 0012 0C37     		adds	r7, r7, #12
 723              		.cfi_def_cfa_offset 4
 724 0014 BD46     		mov	sp, r7
 725              		.cfi_def_cfa_register 13
 726              		@ sp needed
 727 0016 5DF8047B 		ldr	r7, [sp], #4
 728              		.cfi_restore 7
 729              		.cfi_def_cfa_offset 0
 730 001a 7047     		bx	lr
 731              		.cfi_endproc
 732              	.LFE1889:
 734              		.weak	_ZN5daisy9SpiHandleC1Ev
 735              		.thumb_set _ZN5daisy9SpiHandleC1Ev,_ZN5daisy9SpiHandleC2Ev
 736              		.section	.text._ZN5daisy9RectangleC2Ev,"axG",%progbits,_ZN5daisy9RectangleC5Ev,comdat
 737              		.align	1
 738              		.weak	_ZN5daisy9RectangleC2Ev
 739              		.syntax unified
 740              		.thumb
 741              		.thumb_func
 743              	_ZN5daisy9RectangleC2Ev:
 744              	.LFB1898:
 745              		.file 13 "../../../../libs/libDaisy/src/hid/disp/graphics_common.h"
   1:../../../../libs/libDaisy/src/hid/disp/graphics_common.h **** #pragma once
   2:../../../../libs/libDaisy/src/hid/disp/graphics_common.h **** 
   3:../../../../libs/libDaisy/src/hid/disp/graphics_common.h **** #include <cstdint>
   4:../../../../libs/libDaisy/src/hid/disp/graphics_common.h **** 
   5:../../../../libs/libDaisy/src/hid/disp/graphics_common.h **** namespace daisy
   6:../../../../libs/libDaisy/src/hid/disp/graphics_common.h **** {
   7:../../../../libs/libDaisy/src/hid/disp/graphics_common.h **** /** Justifications */
   8:../../../../libs/libDaisy/src/hid/disp/graphics_common.h **** enum class Alignment
   9:../../../../libs/libDaisy/src/hid/disp/graphics_common.h **** {
  10:../../../../libs/libDaisy/src/hid/disp/graphics_common.h ****     centered,
  11:../../../../libs/libDaisy/src/hid/disp/graphics_common.h ****     topLeft,
  12:../../../../libs/libDaisy/src/hid/disp/graphics_common.h ****     topCentered,
  13:../../../../libs/libDaisy/src/hid/disp/graphics_common.h ****     topRight,
  14:../../../../libs/libDaisy/src/hid/disp/graphics_common.h ****     bottomLeft,
  15:../../../../libs/libDaisy/src/hid/disp/graphics_common.h ****     bottomCentered,
  16:../../../../libs/libDaisy/src/hid/disp/graphics_common.h ****     bottomRight,
  17:../../../../libs/libDaisy/src/hid/disp/graphics_common.h ****     centeredLeft,
  18:../../../../libs/libDaisy/src/hid/disp/graphics_common.h ****     centeredRight
  19:../../../../libs/libDaisy/src/hid/disp/graphics_common.h **** };
  20:../../../../libs/libDaisy/src/hid/disp/graphics_common.h **** 
  21:../../../../libs/libDaisy/src/hid/disp/graphics_common.h **** class Rectangle
  22:../../../../libs/libDaisy/src/hid/disp/graphics_common.h **** {
  23:../../../../libs/libDaisy/src/hid/disp/graphics_common.h ****   public:
  24:../../../../libs/libDaisy/src/hid/disp/graphics_common.h ****     Rectangle() : x_(0), y_(0), width_(0), height_(0) {}
ARM GAS  /var/folders/f7/sjskzmt15v119_37bs_xt4r00000gn/T//cc3cAasR.s 			page 38


 746              		.loc 13 24 5
 747              		.cfi_startproc
 748              		@ args = 0, pretend = 0, frame = 8
 749              		@ frame_needed = 1, uses_anonymous_args = 0
 750              		@ link register save eliminated.
 751 0000 80B4     		push	{r7}
 752              		.cfi_def_cfa_offset 4
 753              		.cfi_offset 7, -4
 754 0002 83B0     		sub	sp, sp, #12
 755              		.cfi_def_cfa_offset 16
 756 0004 00AF     		add	r7, sp, #0
 757              		.cfi_def_cfa_register 7
 758 0006 7860     		str	r0, [r7, #4]
 759              	.LBB303:
 760              		.loc 13 24 19
 761 0008 7B68     		ldr	r3, [r7, #4]
 762 000a 0022     		movs	r2, #0
 763 000c 1A80     		strh	r2, [r3]	@ movhi
 764              		.loc 13 24 26
 765 000e 7B68     		ldr	r3, [r7, #4]
 766 0010 0022     		movs	r2, #0
 767 0012 5A80     		strh	r2, [r3, #2]	@ movhi
 768              		.loc 13 24 33
 769 0014 7B68     		ldr	r3, [r7, #4]
 770 0016 0022     		movs	r2, #0
 771 0018 9A80     		strh	r2, [r3, #4]	@ movhi
 772              		.loc 13 24 44
 773 001a 7B68     		ldr	r3, [r7, #4]
 774 001c 0022     		movs	r2, #0
 775 001e DA80     		strh	r2, [r3, #6]	@ movhi
 776              	.LBE303:
 777              		.loc 13 24 56
 778 0020 7B68     		ldr	r3, [r7, #4]
 779 0022 1846     		mov	r0, r3
 780 0024 0C37     		adds	r7, r7, #12
 781              		.cfi_def_cfa_offset 4
 782 0026 BD46     		mov	sp, r7
 783              		.cfi_def_cfa_register 13
 784              		@ sp needed
 785 0028 5DF8047B 		ldr	r7, [sp], #4
 786              		.cfi_restore 7
 787              		.cfi_def_cfa_offset 0
 788 002c 7047     		bx	lr
 789              		.cfi_endproc
 790              	.LFE1898:
 792              		.weak	_ZN5daisy9RectangleC1Ev
 793              		.thumb_set _ZN5daisy9RectangleC1Ev,_ZN5daisy9RectangleC2Ev
 794              		.section	.text._ZN5daisy9RectangleC2Ess,"axG",%progbits,_ZN5daisy9RectangleC5Ess,comdat
 795              		.align	1
 796              		.weak	_ZN5daisy9RectangleC2Ess
 797              		.syntax unified
 798              		.thumb
 799              		.thumb_func
 801              	_ZN5daisy9RectangleC2Ess:
 802              	.LFB1901:
  25:../../../../libs/libDaisy/src/hid/disp/graphics_common.h **** 
  26:../../../../libs/libDaisy/src/hid/disp/graphics_common.h ****     Rectangle(int16_t width, int16_t height)
ARM GAS  /var/folders/f7/sjskzmt15v119_37bs_xt4r00000gn/T//cc3cAasR.s 			page 39


 803              		.loc 13 26 5
 804              		.cfi_startproc
 805              		@ args = 0, pretend = 0, frame = 8
 806              		@ frame_needed = 1, uses_anonymous_args = 0
 807 0000 80B5     		push	{r7, lr}
 808              		.cfi_def_cfa_offset 8
 809              		.cfi_offset 7, -8
 810              		.cfi_offset 14, -4
 811 0002 82B0     		sub	sp, sp, #8
 812              		.cfi_def_cfa_offset 16
 813 0004 00AF     		add	r7, sp, #0
 814              		.cfi_def_cfa_register 7
 815 0006 7860     		str	r0, [r7, #4]
 816 0008 0B46     		mov	r3, r1
 817 000a 7B80     		strh	r3, [r7, #2]	@ movhi
 818 000c 1346     		mov	r3, r2	@ movhi
 819 000e 3B80     		strh	r3, [r7]	@ movhi
 820              	.LBB304:
  27:../../../../libs/libDaisy/src/hid/disp/graphics_common.h ****     : x_(0), y_(0), width_(max(0, width)), height_(max(0, height))
 821              		.loc 13 27 7
 822 0010 7B68     		ldr	r3, [r7, #4]
 823 0012 0022     		movs	r2, #0
 824 0014 1A80     		strh	r2, [r3]	@ movhi
 825              		.loc 13 27 14
 826 0016 7B68     		ldr	r3, [r7, #4]
 827 0018 0022     		movs	r2, #0
 828 001a 5A80     		strh	r2, [r3, #2]	@ movhi
 829              		.loc 13 27 31
 830 001c B7F90230 		ldrsh	r3, [r7, #2]
 831 0020 1A46     		mov	r2, r3
 832 0022 0021     		movs	r1, #0
 833 0024 7868     		ldr	r0, [r7, #4]
 834 0026 FFF7FEFF 		bl	_ZN5daisy9Rectangle3maxEss
 835 002a 0346     		mov	r3, r0
 836 002c 1A46     		mov	r2, r3
 837              		.loc 13 27 21 discriminator 1
 838 002e 7B68     		ldr	r3, [r7, #4]
 839 0030 9A80     		strh	r2, [r3, #4]	@ movhi
 840              		.loc 13 27 55 discriminator 1
 841 0032 B7F90030 		ldrsh	r3, [r7]
 842 0036 1A46     		mov	r2, r3
 843 0038 0021     		movs	r1, #0
 844 003a 7868     		ldr	r0, [r7, #4]
 845 003c FFF7FEFF 		bl	_ZN5daisy9Rectangle3maxEss
 846 0040 0346     		mov	r3, r0
 847 0042 1A46     		mov	r2, r3
 848              		.loc 13 27 44 discriminator 2
 849 0044 7B68     		ldr	r3, [r7, #4]
 850 0046 DA80     		strh	r2, [r3, #6]	@ movhi
 851              	.LBE304:
  28:../../../../libs/libDaisy/src/hid/disp/graphics_common.h ****     {
  29:../../../../libs/libDaisy/src/hid/disp/graphics_common.h ****     }
 852              		.loc 13 29 5
 853 0048 7B68     		ldr	r3, [r7, #4]
 854 004a 1846     		mov	r0, r3
 855 004c 0837     		adds	r7, r7, #8
 856              		.cfi_def_cfa_offset 8
ARM GAS  /var/folders/f7/sjskzmt15v119_37bs_xt4r00000gn/T//cc3cAasR.s 			page 40


 857 004e BD46     		mov	sp, r7
 858              		.cfi_def_cfa_register 13
 859              		@ sp needed
 860 0050 80BD     		pop	{r7, pc}
 861              		.cfi_endproc
 862              	.LFE1901:
 864              		.weak	_ZN5daisy9RectangleC1Ess
 865              		.thumb_set _ZN5daisy9RectangleC1Ess,_ZN5daisy9RectangleC2Ess
 866              		.section	.text._ZN5daisy9RectangleC2Essss,"axG",%progbits,_ZN5daisy9RectangleC5Essss,comdat
 867              		.align	1
 868              		.weak	_ZN5daisy9RectangleC2Essss
 869              		.syntax unified
 870              		.thumb
 871              		.thumb_func
 873              	_ZN5daisy9RectangleC2Essss:
 874              	.LFB1904:
  30:../../../../libs/libDaisy/src/hid/disp/graphics_common.h **** 
  31:../../../../libs/libDaisy/src/hid/disp/graphics_common.h ****     Rectangle(int16_t x, int16_t y, int16_t width, int16_t height)
 875              		.loc 13 31 5
 876              		.cfi_startproc
 877              		@ args = 4, pretend = 0, frame = 16
 878              		@ frame_needed = 1, uses_anonymous_args = 0
 879 0000 80B5     		push	{r7, lr}
 880              		.cfi_def_cfa_offset 8
 881              		.cfi_offset 7, -8
 882              		.cfi_offset 14, -4
 883 0002 84B0     		sub	sp, sp, #16
 884              		.cfi_def_cfa_offset 24
 885 0004 00AF     		add	r7, sp, #0
 886              		.cfi_def_cfa_register 7
 887 0006 F860     		str	r0, [r7, #12]
 888 0008 0846     		mov	r0, r1
 889 000a 1146     		mov	r1, r2
 890 000c 1A46     		mov	r2, r3
 891 000e 0346     		mov	r3, r0	@ movhi
 892 0010 7B81     		strh	r3, [r7, #10]	@ movhi
 893 0012 0B46     		mov	r3, r1	@ movhi
 894 0014 3B81     		strh	r3, [r7, #8]	@ movhi
 895 0016 1346     		mov	r3, r2	@ movhi
 896 0018 FB80     		strh	r3, [r7, #6]	@ movhi
 897              	.LBB305:
  32:../../../../libs/libDaisy/src/hid/disp/graphics_common.h ****     : x_(x), y_(y), width_(max(0, width)), height_(max(0, height))
 898              		.loc 13 32 7
 899 001a FB68     		ldr	r3, [r7, #12]
 900 001c 7A89     		ldrh	r2, [r7, #10]	@ movhi
 901 001e 1A80     		strh	r2, [r3]	@ movhi
 902              		.loc 13 32 14
 903 0020 FB68     		ldr	r3, [r7, #12]
 904 0022 3A89     		ldrh	r2, [r7, #8]	@ movhi
 905 0024 5A80     		strh	r2, [r3, #2]	@ movhi
 906              		.loc 13 32 31
 907 0026 B7F90630 		ldrsh	r3, [r7, #6]
 908 002a 1A46     		mov	r2, r3
 909 002c 0021     		movs	r1, #0
 910 002e F868     		ldr	r0, [r7, #12]
 911 0030 FFF7FEFF 		bl	_ZN5daisy9Rectangle3maxEss
 912 0034 0346     		mov	r3, r0
ARM GAS  /var/folders/f7/sjskzmt15v119_37bs_xt4r00000gn/T//cc3cAasR.s 			page 41


 913 0036 1A46     		mov	r2, r3
 914              		.loc 13 32 21 discriminator 1
 915 0038 FB68     		ldr	r3, [r7, #12]
 916 003a 9A80     		strh	r2, [r3, #4]	@ movhi
 917              		.loc 13 32 55 discriminator 1
 918 003c B7F91830 		ldrsh	r3, [r7, #24]
 919 0040 1A46     		mov	r2, r3
 920 0042 0021     		movs	r1, #0
 921 0044 F868     		ldr	r0, [r7, #12]
 922 0046 FFF7FEFF 		bl	_ZN5daisy9Rectangle3maxEss
 923 004a 0346     		mov	r3, r0
 924 004c 1A46     		mov	r2, r3
 925              		.loc 13 32 44 discriminator 2
 926 004e FB68     		ldr	r3, [r7, #12]
 927 0050 DA80     		strh	r2, [r3, #6]	@ movhi
 928              	.LBE305:
  33:../../../../libs/libDaisy/src/hid/disp/graphics_common.h ****     {
  34:../../../../libs/libDaisy/src/hid/disp/graphics_common.h ****     }
 929              		.loc 13 34 5
 930 0052 FB68     		ldr	r3, [r7, #12]
 931 0054 1846     		mov	r0, r3
 932 0056 1037     		adds	r7, r7, #16
 933              		.cfi_def_cfa_offset 8
 934 0058 BD46     		mov	sp, r7
 935              		.cfi_def_cfa_register 13
 936              		@ sp needed
 937 005a 80BD     		pop	{r7, pc}
 938              		.cfi_endproc
 939              	.LFE1904:
 941              		.weak	_ZN5daisy9RectangleC1Essss
 942              		.thumb_set _ZN5daisy9RectangleC1Essss,_ZN5daisy9RectangleC2Essss
 943              		.section	.text._ZNK5daisy9Rectangle4GetXEv,"axG",%progbits,_ZNK5daisy9Rectangle4GetXEv,comdat
 944              		.align	1
 945              		.weak	_ZNK5daisy9Rectangle4GetXEv
 946              		.syntax unified
 947              		.thumb
 948              		.thumb_func
 950              	_ZNK5daisy9Rectangle4GetXEv:
 951              	.LFB1913:
  35:../../../../libs/libDaisy/src/hid/disp/graphics_common.h **** 
  36:../../../../libs/libDaisy/src/hid/disp/graphics_common.h ****     Rectangle(const Rectangle& other) { *this = other; }
  37:../../../../libs/libDaisy/src/hid/disp/graphics_common.h **** 
  38:../../../../libs/libDaisy/src/hid/disp/graphics_common.h ****     Rectangle& operator=(const Rectangle& other)
  39:../../../../libs/libDaisy/src/hid/disp/graphics_common.h ****     {
  40:../../../../libs/libDaisy/src/hid/disp/graphics_common.h ****         x_      = other.x_;
  41:../../../../libs/libDaisy/src/hid/disp/graphics_common.h ****         y_      = other.y_;
  42:../../../../libs/libDaisy/src/hid/disp/graphics_common.h ****         width_  = other.width_;
  43:../../../../libs/libDaisy/src/hid/disp/graphics_common.h ****         height_ = other.height_;
  44:../../../../libs/libDaisy/src/hid/disp/graphics_common.h ****         return *this;
  45:../../../../libs/libDaisy/src/hid/disp/graphics_common.h ****     }
  46:../../../../libs/libDaisy/src/hid/disp/graphics_common.h **** 
  47:../../../../libs/libDaisy/src/hid/disp/graphics_common.h ****     bool operator==(const Rectangle& other) const
  48:../../../../libs/libDaisy/src/hid/disp/graphics_common.h ****     {
  49:../../../../libs/libDaisy/src/hid/disp/graphics_common.h ****         return (x_ == other.x_) && (y_ == other.y_) && (width_ == other.width_)
  50:../../../../libs/libDaisy/src/hid/disp/graphics_common.h ****                && (height_ == other.height_);
  51:../../../../libs/libDaisy/src/hid/disp/graphics_common.h ****     }
  52:../../../../libs/libDaisy/src/hid/disp/graphics_common.h ****     bool operator!=(const Rectangle& other) const { return !(*this == other); }
ARM GAS  /var/folders/f7/sjskzmt15v119_37bs_xt4r00000gn/T//cc3cAasR.s 			page 42


  53:../../../../libs/libDaisy/src/hid/disp/graphics_common.h **** 
  54:../../../../libs/libDaisy/src/hid/disp/graphics_common.h ****     bool IsEmpty() const { return (width_ <= 0) || (height_ <= 0); }
  55:../../../../libs/libDaisy/src/hid/disp/graphics_common.h **** 
  56:../../../../libs/libDaisy/src/hid/disp/graphics_common.h ****     int16_t GetX() const { return x_; }
 952              		.loc 13 56 13
 953              		.cfi_startproc
 954              		@ args = 0, pretend = 0, frame = 8
 955              		@ frame_needed = 1, uses_anonymous_args = 0
 956              		@ link register save eliminated.
 957 0000 80B4     		push	{r7}
 958              		.cfi_def_cfa_offset 4
 959              		.cfi_offset 7, -4
 960 0002 83B0     		sub	sp, sp, #12
 961              		.cfi_def_cfa_offset 16
 962 0004 00AF     		add	r7, sp, #0
 963              		.cfi_def_cfa_register 7
 964 0006 7860     		str	r0, [r7, #4]
 965              		.loc 13 56 35
 966 0008 7B68     		ldr	r3, [r7, #4]
 967 000a B3F90030 		ldrsh	r3, [r3]
 968              		.loc 13 56 39
 969 000e 1846     		mov	r0, r3
 970 0010 0C37     		adds	r7, r7, #12
 971              		.cfi_def_cfa_offset 4
 972 0012 BD46     		mov	sp, r7
 973              		.cfi_def_cfa_register 13
 974              		@ sp needed
 975 0014 5DF8047B 		ldr	r7, [sp], #4
 976              		.cfi_restore 7
 977              		.cfi_def_cfa_offset 0
 978 0018 7047     		bx	lr
 979              		.cfi_endproc
 980              	.LFE1913:
 982              		.section	.text._ZNK5daisy9Rectangle4GetYEv,"axG",%progbits,_ZNK5daisy9Rectangle4GetYEv,comdat
 983              		.align	1
 984              		.weak	_ZNK5daisy9Rectangle4GetYEv
 985              		.syntax unified
 986              		.thumb
 987              		.thumb_func
 989              	_ZNK5daisy9Rectangle4GetYEv:
 990              	.LFB1914:
  57:../../../../libs/libDaisy/src/hid/disp/graphics_common.h ****     int16_t GetY() const { return y_; }
 991              		.loc 13 57 13
 992              		.cfi_startproc
 993              		@ args = 0, pretend = 0, frame = 8
 994              		@ frame_needed = 1, uses_anonymous_args = 0
 995              		@ link register save eliminated.
 996 0000 80B4     		push	{r7}
 997              		.cfi_def_cfa_offset 4
 998              		.cfi_offset 7, -4
 999 0002 83B0     		sub	sp, sp, #12
 1000              		.cfi_def_cfa_offset 16
 1001 0004 00AF     		add	r7, sp, #0
 1002              		.cfi_def_cfa_register 7
 1003 0006 7860     		str	r0, [r7, #4]
 1004              		.loc 13 57 35
 1005 0008 7B68     		ldr	r3, [r7, #4]
ARM GAS  /var/folders/f7/sjskzmt15v119_37bs_xt4r00000gn/T//cc3cAasR.s 			page 43


 1006 000a B3F90230 		ldrsh	r3, [r3, #2]
 1007              		.loc 13 57 39
 1008 000e 1846     		mov	r0, r3
 1009 0010 0C37     		adds	r7, r7, #12
 1010              		.cfi_def_cfa_offset 4
 1011 0012 BD46     		mov	sp, r7
 1012              		.cfi_def_cfa_register 13
 1013              		@ sp needed
 1014 0014 5DF8047B 		ldr	r7, [sp], #4
 1015              		.cfi_restore 7
 1016              		.cfi_def_cfa_offset 0
 1017 0018 7047     		bx	lr
 1018              		.cfi_endproc
 1019              	.LFE1914:
 1021              		.section	.text._ZNK5daisy9Rectangle8GetRightEv,"axG",%progbits,_ZNK5daisy9Rectangle8GetRightEv,com
 1022              		.align	1
 1023              		.weak	_ZNK5daisy9Rectangle8GetRightEv
 1024              		.syntax unified
 1025              		.thumb
 1026              		.thumb_func
 1028              	_ZNK5daisy9Rectangle8GetRightEv:
 1029              	.LFB1917:
  58:../../../../libs/libDaisy/src/hid/disp/graphics_common.h ****     int16_t GetWidth() const { return width_; }
  59:../../../../libs/libDaisy/src/hid/disp/graphics_common.h ****     int16_t GetHeight() const { return height_; }
  60:../../../../libs/libDaisy/src/hid/disp/graphics_common.h ****     int16_t GetRight() const { return x_ + width_; }
 1030              		.loc 13 60 13
 1031              		.cfi_startproc
 1032              		@ args = 0, pretend = 0, frame = 8
 1033              		@ frame_needed = 1, uses_anonymous_args = 0
 1034              		@ link register save eliminated.
 1035 0000 80B4     		push	{r7}
 1036              		.cfi_def_cfa_offset 4
 1037              		.cfi_offset 7, -4
 1038 0002 83B0     		sub	sp, sp, #12
 1039              		.cfi_def_cfa_offset 16
 1040 0004 00AF     		add	r7, sp, #0
 1041              		.cfi_def_cfa_register 7
 1042 0006 7860     		str	r0, [r7, #4]
 1043              		.loc 13 60 39
 1044 0008 7B68     		ldr	r3, [r7, #4]
 1045 000a B3F90030 		ldrsh	r3, [r3]
 1046 000e 9AB2     		uxth	r2, r3
 1047              		.loc 13 60 44
 1048 0010 7B68     		ldr	r3, [r7, #4]
 1049 0012 B3F90430 		ldrsh	r3, [r3, #4]
 1050 0016 9BB2     		uxth	r3, r3
 1051              		.loc 13 60 42
 1052 0018 1344     		add	r3, r3, r2
 1053 001a 9BB2     		uxth	r3, r3
 1054              		.loc 13 60 44
 1055 001c 1BB2     		sxth	r3, r3
 1056              		.loc 13 60 52
 1057 001e 1846     		mov	r0, r3
 1058 0020 0C37     		adds	r7, r7, #12
 1059              		.cfi_def_cfa_offset 4
 1060 0022 BD46     		mov	sp, r7
 1061              		.cfi_def_cfa_register 13
ARM GAS  /var/folders/f7/sjskzmt15v119_37bs_xt4r00000gn/T//cc3cAasR.s 			page 44


 1062              		@ sp needed
 1063 0024 5DF8047B 		ldr	r7, [sp], #4
 1064              		.cfi_restore 7
 1065              		.cfi_def_cfa_offset 0
 1066 0028 7047     		bx	lr
 1067              		.cfi_endproc
 1068              	.LFE1917:
 1070              		.section	.text._ZNK5daisy9Rectangle9GetBottomEv,"axG",%progbits,_ZNK5daisy9Rectangle9GetBottomEv,c
 1071              		.align	1
 1072              		.weak	_ZNK5daisy9Rectangle9GetBottomEv
 1073              		.syntax unified
 1074              		.thumb
 1075              		.thumb_func
 1077              	_ZNK5daisy9Rectangle9GetBottomEv:
 1078              	.LFB1918:
  61:../../../../libs/libDaisy/src/hid/disp/graphics_common.h ****     int16_t GetBottom() const { return y_ + height_; }
 1079              		.loc 13 61 13
 1080              		.cfi_startproc
 1081              		@ args = 0, pretend = 0, frame = 8
 1082              		@ frame_needed = 1, uses_anonymous_args = 0
 1083              		@ link register save eliminated.
 1084 0000 80B4     		push	{r7}
 1085              		.cfi_def_cfa_offset 4
 1086              		.cfi_offset 7, -4
 1087 0002 83B0     		sub	sp, sp, #12
 1088              		.cfi_def_cfa_offset 16
 1089 0004 00AF     		add	r7, sp, #0
 1090              		.cfi_def_cfa_register 7
 1091 0006 7860     		str	r0, [r7, #4]
 1092              		.loc 13 61 40
 1093 0008 7B68     		ldr	r3, [r7, #4]
 1094 000a B3F90230 		ldrsh	r3, [r3, #2]
 1095 000e 9AB2     		uxth	r2, r3
 1096              		.loc 13 61 45
 1097 0010 7B68     		ldr	r3, [r7, #4]
 1098 0012 B3F90630 		ldrsh	r3, [r3, #6]
 1099 0016 9BB2     		uxth	r3, r3
 1100              		.loc 13 61 43
 1101 0018 1344     		add	r3, r3, r2
 1102 001a 9BB2     		uxth	r3, r3
 1103              		.loc 13 61 45
 1104 001c 1BB2     		sxth	r3, r3
 1105              		.loc 13 61 54
 1106 001e 1846     		mov	r0, r3
 1107 0020 0C37     		adds	r7, r7, #12
 1108              		.cfi_def_cfa_offset 4
 1109 0022 BD46     		mov	sp, r7
 1110              		.cfi_def_cfa_register 13
 1111              		@ sp needed
 1112 0024 5DF8047B 		ldr	r7, [sp], #4
 1113              		.cfi_restore 7
 1114              		.cfi_def_cfa_offset 0
 1115 0028 7047     		bx	lr
 1116              		.cfi_endproc
 1117              	.LFE1918:
 1119              		.section	.text._ZNK5daisy9Rectangle10GetCenterXEv,"axG",%progbits,_ZNK5daisy9Rectangle10GetCenterX
 1120              		.align	1
ARM GAS  /var/folders/f7/sjskzmt15v119_37bs_xt4r00000gn/T//cc3cAasR.s 			page 45


 1121              		.weak	_ZNK5daisy9Rectangle10GetCenterXEv
 1122              		.syntax unified
 1123              		.thumb
 1124              		.thumb_func
 1126              	_ZNK5daisy9Rectangle10GetCenterXEv:
 1127              	.LFB1919:
  62:../../../../libs/libDaisy/src/hid/disp/graphics_common.h ****     int16_t GetCenterX() const { return x_ + width_ / 2; }
 1128              		.loc 13 62 13
 1129              		.cfi_startproc
 1130              		@ args = 0, pretend = 0, frame = 8
 1131              		@ frame_needed = 1, uses_anonymous_args = 0
 1132              		@ link register save eliminated.
 1133 0000 80B4     		push	{r7}
 1134              		.cfi_def_cfa_offset 4
 1135              		.cfi_offset 7, -4
 1136 0002 83B0     		sub	sp, sp, #12
 1137              		.cfi_def_cfa_offset 16
 1138 0004 00AF     		add	r7, sp, #0
 1139              		.cfi_def_cfa_register 7
 1140 0006 7860     		str	r0, [r7, #4]
 1141              		.loc 13 62 41
 1142 0008 7B68     		ldr	r3, [r7, #4]
 1143 000a B3F90030 		ldrsh	r3, [r3]
 1144 000e 9AB2     		uxth	r2, r3
 1145              		.loc 13 62 46
 1146 0010 7B68     		ldr	r3, [r7, #4]
 1147 0012 B3F90430 		ldrsh	r3, [r3, #4]
 1148              		.loc 13 62 53
 1149 0016 002B     		cmp	r3, #0
 1150 0018 00DA     		bge	.L52
 1151 001a 0133     		adds	r3, r3, #1
 1152              	.L52:
 1153 001c 5B10     		asrs	r3, r3, #1
 1154 001e 1BB2     		sxth	r3, r3
 1155 0020 9BB2     		uxth	r3, r3
 1156              		.loc 13 62 44
 1157 0022 1344     		add	r3, r3, r2
 1158 0024 9BB2     		uxth	r3, r3
 1159              		.loc 13 62 55
 1160 0026 1BB2     		sxth	r3, r3
 1161              		.loc 13 62 58
 1162 0028 1846     		mov	r0, r3
 1163 002a 0C37     		adds	r7, r7, #12
 1164              		.cfi_def_cfa_offset 4
 1165 002c BD46     		mov	sp, r7
 1166              		.cfi_def_cfa_register 13
 1167              		@ sp needed
 1168 002e 5DF8047B 		ldr	r7, [sp], #4
 1169              		.cfi_restore 7
 1170              		.cfi_def_cfa_offset 0
 1171 0032 7047     		bx	lr
 1172              		.cfi_endproc
 1173              	.LFE1919:
 1175              		.section	.text._ZNK5daisy9Rectangle10GetCenterYEv,"axG",%progbits,_ZNK5daisy9Rectangle10GetCenterY
 1176              		.align	1
 1177              		.weak	_ZNK5daisy9Rectangle10GetCenterYEv
 1178              		.syntax unified
ARM GAS  /var/folders/f7/sjskzmt15v119_37bs_xt4r00000gn/T//cc3cAasR.s 			page 46


 1179              		.thumb
 1180              		.thumb_func
 1182              	_ZNK5daisy9Rectangle10GetCenterYEv:
 1183              	.LFB1920:
  63:../../../../libs/libDaisy/src/hid/disp/graphics_common.h ****     int16_t GetCenterY() const { return y_ + height_ / 2; }
 1184              		.loc 13 63 13
 1185              		.cfi_startproc
 1186              		@ args = 0, pretend = 0, frame = 8
 1187              		@ frame_needed = 1, uses_anonymous_args = 0
 1188              		@ link register save eliminated.
 1189 0000 80B4     		push	{r7}
 1190              		.cfi_def_cfa_offset 4
 1191              		.cfi_offset 7, -4
 1192 0002 83B0     		sub	sp, sp, #12
 1193              		.cfi_def_cfa_offset 16
 1194 0004 00AF     		add	r7, sp, #0
 1195              		.cfi_def_cfa_register 7
 1196 0006 7860     		str	r0, [r7, #4]
 1197              		.loc 13 63 41
 1198 0008 7B68     		ldr	r3, [r7, #4]
 1199 000a B3F90230 		ldrsh	r3, [r3, #2]
 1200 000e 9AB2     		uxth	r2, r3
 1201              		.loc 13 63 46
 1202 0010 7B68     		ldr	r3, [r7, #4]
 1203 0012 B3F90630 		ldrsh	r3, [r3, #6]
 1204              		.loc 13 63 54
 1205 0016 002B     		cmp	r3, #0
 1206 0018 00DA     		bge	.L55
 1207 001a 0133     		adds	r3, r3, #1
 1208              	.L55:
 1209 001c 5B10     		asrs	r3, r3, #1
 1210 001e 1BB2     		sxth	r3, r3
 1211 0020 9BB2     		uxth	r3, r3
 1212              		.loc 13 63 44
 1213 0022 1344     		add	r3, r3, r2
 1214 0024 9BB2     		uxth	r3, r3
 1215              		.loc 13 63 56
 1216 0026 1BB2     		sxth	r3, r3
 1217              		.loc 13 63 59
 1218 0028 1846     		mov	r0, r3
 1219 002a 0C37     		adds	r7, r7, #12
 1220              		.cfi_def_cfa_offset 4
 1221 002c BD46     		mov	sp, r7
 1222              		.cfi_def_cfa_register 13
 1223              		@ sp needed
 1224 002e 5DF8047B 		ldr	r7, [sp], #4
 1225              		.cfi_restore 7
 1226              		.cfi_def_cfa_offset 0
 1227 0032 7047     		bx	lr
 1228              		.cfi_endproc
 1229              	.LFE1920:
 1231              		.section	.text._ZNK5daisy9Rectangle13AlignedWithinERKS0_NS_9AlignmentE,"axG",%progbits,_ZNK5daisy9
 1232              		.align	1
 1233              		.weak	_ZNK5daisy9Rectangle13AlignedWithinERKS0_NS_9AlignmentE
 1234              		.syntax unified
 1235              		.thumb
 1236              		.thumb_func
ARM GAS  /var/folders/f7/sjskzmt15v119_37bs_xt4r00000gn/T//cc3cAasR.s 			page 47


 1238              	_ZNK5daisy9Rectangle13AlignedWithinERKS0_NS_9AlignmentE:
 1239              	.LFB1947:
  64:../../../../libs/libDaisy/src/hid/disp/graphics_common.h **** 
  65:../../../../libs/libDaisy/src/hid/disp/graphics_common.h ****     Rectangle WithX(int16_t x) const { return {x, y_, width_, height_}; }
  66:../../../../libs/libDaisy/src/hid/disp/graphics_common.h ****     Rectangle WithY(int16_t y) const { return {x_, y, width_, height_}; }
  67:../../../../libs/libDaisy/src/hid/disp/graphics_common.h ****     Rectangle WithWidth(int16_t width) const
  68:../../../../libs/libDaisy/src/hid/disp/graphics_common.h ****     {
  69:../../../../libs/libDaisy/src/hid/disp/graphics_common.h ****         return {x_, y_, width, height_};
  70:../../../../libs/libDaisy/src/hid/disp/graphics_common.h ****     }
  71:../../../../libs/libDaisy/src/hid/disp/graphics_common.h ****     Rectangle WithHeight(int16_t height) const
  72:../../../../libs/libDaisy/src/hid/disp/graphics_common.h ****     {
  73:../../../../libs/libDaisy/src/hid/disp/graphics_common.h ****         return {x_, y_, width_, height};
  74:../../../../libs/libDaisy/src/hid/disp/graphics_common.h ****     }
  75:../../../../libs/libDaisy/src/hid/disp/graphics_common.h ****     Rectangle WithSize(int16_t width, int16_t height) const
  76:../../../../libs/libDaisy/src/hid/disp/graphics_common.h ****     {
  77:../../../../libs/libDaisy/src/hid/disp/graphics_common.h ****         return {x_, y_, width, height};
  78:../../../../libs/libDaisy/src/hid/disp/graphics_common.h ****     }
  79:../../../../libs/libDaisy/src/hid/disp/graphics_common.h ****     Rectangle WithWidthKeepingCenter(int16_t width) const
  80:../../../../libs/libDaisy/src/hid/disp/graphics_common.h ****     {
  81:../../../../libs/libDaisy/src/hid/disp/graphics_common.h ****         return Rectangle(x_, y_, width, height_)
  82:../../../../libs/libDaisy/src/hid/disp/graphics_common.h ****             .WithCenter(GetCenterX(), GetCenterY());
  83:../../../../libs/libDaisy/src/hid/disp/graphics_common.h ****     }
  84:../../../../libs/libDaisy/src/hid/disp/graphics_common.h ****     Rectangle WithHeightKeepingCenter(int16_t height) const
  85:../../../../libs/libDaisy/src/hid/disp/graphics_common.h ****     {
  86:../../../../libs/libDaisy/src/hid/disp/graphics_common.h ****         return Rectangle(x_, y_, width_, height)
  87:../../../../libs/libDaisy/src/hid/disp/graphics_common.h ****             .WithCenter(GetCenterX(), GetCenterY());
  88:../../../../libs/libDaisy/src/hid/disp/graphics_common.h ****     }
  89:../../../../libs/libDaisy/src/hid/disp/graphics_common.h ****     Rectangle WithSizeKeepingCenter(int16_t width, int16_t height) const
  90:../../../../libs/libDaisy/src/hid/disp/graphics_common.h ****     {
  91:../../../../libs/libDaisy/src/hid/disp/graphics_common.h ****         return Rectangle(x_, y_, width, height)
  92:../../../../libs/libDaisy/src/hid/disp/graphics_common.h ****             .WithCenter(GetCenterX(), GetCenterY());
  93:../../../../libs/libDaisy/src/hid/disp/graphics_common.h ****     }
  94:../../../../libs/libDaisy/src/hid/disp/graphics_common.h **** 
  95:../../../../libs/libDaisy/src/hid/disp/graphics_common.h ****     Rectangle Reduced(int16_t sizeToReduce) const
  96:../../../../libs/libDaisy/src/hid/disp/graphics_common.h ****     {
  97:../../../../libs/libDaisy/src/hid/disp/graphics_common.h ****         return {int16_t(x_ + sizeToReduce),
  98:../../../../libs/libDaisy/src/hid/disp/graphics_common.h ****                 int16_t(y_ + sizeToReduce),
  99:../../../../libs/libDaisy/src/hid/disp/graphics_common.h ****                 int16_t(width_ - 2 * sizeToReduce),
 100:../../../../libs/libDaisy/src/hid/disp/graphics_common.h ****                 int16_t(height_ - 2 * sizeToReduce)};
 101:../../../../libs/libDaisy/src/hid/disp/graphics_common.h ****     }
 102:../../../../libs/libDaisy/src/hid/disp/graphics_common.h ****     Rectangle Reduced(int16_t xToReduce, int16_t yToReduce) const
 103:../../../../libs/libDaisy/src/hid/disp/graphics_common.h ****     {
 104:../../../../libs/libDaisy/src/hid/disp/graphics_common.h ****         return {int16_t(x_ + xToReduce),
 105:../../../../libs/libDaisy/src/hid/disp/graphics_common.h ****                 int16_t(y_ + yToReduce),
 106:../../../../libs/libDaisy/src/hid/disp/graphics_common.h ****                 int16_t(width_ - 2 * xToReduce),
 107:../../../../libs/libDaisy/src/hid/disp/graphics_common.h ****                 int16_t(height_ - 2 * yToReduce)};
 108:../../../../libs/libDaisy/src/hid/disp/graphics_common.h ****     }
 109:../../../../libs/libDaisy/src/hid/disp/graphics_common.h **** 
 110:../../../../libs/libDaisy/src/hid/disp/graphics_common.h ****     Rectangle Translated(int16_t x, int16_t y) const
 111:../../../../libs/libDaisy/src/hid/disp/graphics_common.h ****     {
 112:../../../../libs/libDaisy/src/hid/disp/graphics_common.h ****         return {int16_t(x_ + x), int16_t(y_ + y), width_, height_};
 113:../../../../libs/libDaisy/src/hid/disp/graphics_common.h ****     }
 114:../../../../libs/libDaisy/src/hid/disp/graphics_common.h **** 
 115:../../../../libs/libDaisy/src/hid/disp/graphics_common.h ****     Rectangle WithLeft(int16_t left) const
 116:../../../../libs/libDaisy/src/hid/disp/graphics_common.h ****     {
 117:../../../../libs/libDaisy/src/hid/disp/graphics_common.h ****         const auto newWidth = int16_t((x_ - left) + width_);
 118:../../../../libs/libDaisy/src/hid/disp/graphics_common.h ****         return {left, y_, newWidth, height_};
ARM GAS  /var/folders/f7/sjskzmt15v119_37bs_xt4r00000gn/T//cc3cAasR.s 			page 48


 119:../../../../libs/libDaisy/src/hid/disp/graphics_common.h ****     }
 120:../../../../libs/libDaisy/src/hid/disp/graphics_common.h **** 
 121:../../../../libs/libDaisy/src/hid/disp/graphics_common.h ****     Rectangle WithRight(int16_t right) const
 122:../../../../libs/libDaisy/src/hid/disp/graphics_common.h ****     {
 123:../../../../libs/libDaisy/src/hid/disp/graphics_common.h ****         const auto newWidth = int16_t(right - x_);
 124:../../../../libs/libDaisy/src/hid/disp/graphics_common.h ****         return {x_, y_, newWidth, height_};
 125:../../../../libs/libDaisy/src/hid/disp/graphics_common.h ****     }
 126:../../../../libs/libDaisy/src/hid/disp/graphics_common.h **** 
 127:../../../../libs/libDaisy/src/hid/disp/graphics_common.h ****     Rectangle WithTop(int16_t top) const
 128:../../../../libs/libDaisy/src/hid/disp/graphics_common.h ****     {
 129:../../../../libs/libDaisy/src/hid/disp/graphics_common.h ****         const auto newHeight = int16_t((y_ - top) + height_);
 130:../../../../libs/libDaisy/src/hid/disp/graphics_common.h ****         return {x_, top, width_, newHeight};
 131:../../../../libs/libDaisy/src/hid/disp/graphics_common.h ****     }
 132:../../../../libs/libDaisy/src/hid/disp/graphics_common.h **** 
 133:../../../../libs/libDaisy/src/hid/disp/graphics_common.h ****     Rectangle WithBottom(int16_t bottom) const
 134:../../../../libs/libDaisy/src/hid/disp/graphics_common.h ****     {
 135:../../../../libs/libDaisy/src/hid/disp/graphics_common.h ****         const auto newHeight = int16_t(bottom - y_);
 136:../../../../libs/libDaisy/src/hid/disp/graphics_common.h ****         return {x_, y_, width_, newHeight};
 137:../../../../libs/libDaisy/src/hid/disp/graphics_common.h ****     }
 138:../../../../libs/libDaisy/src/hid/disp/graphics_common.h **** 
 139:../../../../libs/libDaisy/src/hid/disp/graphics_common.h ****     Rectangle WithTrimmedLeft(int16_t pxToTrim) const
 140:../../../../libs/libDaisy/src/hid/disp/graphics_common.h ****     {
 141:../../../../libs/libDaisy/src/hid/disp/graphics_common.h ****         return {
 142:../../../../libs/libDaisy/src/hid/disp/graphics_common.h ****             int16_t(x_ + pxToTrim), y_, int16_t(width_ - pxToTrim), height_};
 143:../../../../libs/libDaisy/src/hid/disp/graphics_common.h ****     }
 144:../../../../libs/libDaisy/src/hid/disp/graphics_common.h **** 
 145:../../../../libs/libDaisy/src/hid/disp/graphics_common.h ****     Rectangle WithTrimmedRight(int16_t pxToTrim) const
 146:../../../../libs/libDaisy/src/hid/disp/graphics_common.h ****     {
 147:../../../../libs/libDaisy/src/hid/disp/graphics_common.h ****         return {x_, y_, int16_t(width_ - pxToTrim), height_};
 148:../../../../libs/libDaisy/src/hid/disp/graphics_common.h ****     }
 149:../../../../libs/libDaisy/src/hid/disp/graphics_common.h **** 
 150:../../../../libs/libDaisy/src/hid/disp/graphics_common.h ****     Rectangle WithTrimmedTop(int16_t pxToTrim) const
 151:../../../../libs/libDaisy/src/hid/disp/graphics_common.h ****     {
 152:../../../../libs/libDaisy/src/hid/disp/graphics_common.h ****         return {
 153:../../../../libs/libDaisy/src/hid/disp/graphics_common.h ****             x_, int16_t(y_ + pxToTrim), width_, int16_t(height_ - pxToTrim)};
 154:../../../../libs/libDaisy/src/hid/disp/graphics_common.h ****     }
 155:../../../../libs/libDaisy/src/hid/disp/graphics_common.h **** 
 156:../../../../libs/libDaisy/src/hid/disp/graphics_common.h ****     Rectangle WithTrimmedBottom(int16_t pxToTrim) const
 157:../../../../libs/libDaisy/src/hid/disp/graphics_common.h ****     {
 158:../../../../libs/libDaisy/src/hid/disp/graphics_common.h ****         return {x_, y_, width_, int16_t(height_ - pxToTrim)};
 159:../../../../libs/libDaisy/src/hid/disp/graphics_common.h ****     }
 160:../../../../libs/libDaisy/src/hid/disp/graphics_common.h **** 
 161:../../../../libs/libDaisy/src/hid/disp/graphics_common.h ****     Rectangle WithCenterX(int16_t centerX) const
 162:../../../../libs/libDaisy/src/hid/disp/graphics_common.h ****     {
 163:../../../../libs/libDaisy/src/hid/disp/graphics_common.h ****         return {int16_t(x_ + centerX - GetCenterX()), y_, width_, height_};
 164:../../../../libs/libDaisy/src/hid/disp/graphics_common.h ****     }
 165:../../../../libs/libDaisy/src/hid/disp/graphics_common.h **** 
 166:../../../../libs/libDaisy/src/hid/disp/graphics_common.h ****     Rectangle WithCenterY(int16_t centerY) const
 167:../../../../libs/libDaisy/src/hid/disp/graphics_common.h ****     {
 168:../../../../libs/libDaisy/src/hid/disp/graphics_common.h ****         return {x_, int16_t(y_ + centerY - GetCenterY()), width_, height_};
 169:../../../../libs/libDaisy/src/hid/disp/graphics_common.h ****     }
 170:../../../../libs/libDaisy/src/hid/disp/graphics_common.h **** 
 171:../../../../libs/libDaisy/src/hid/disp/graphics_common.h ****     Rectangle WithCenter(int16_t centerX, int16_t centerY) const
 172:../../../../libs/libDaisy/src/hid/disp/graphics_common.h ****     {
 173:../../../../libs/libDaisy/src/hid/disp/graphics_common.h ****         return {int16_t(x_ + centerX - GetCenterX()),
 174:../../../../libs/libDaisy/src/hid/disp/graphics_common.h ****                 int16_t(y_ + centerY - GetCenterY()),
 175:../../../../libs/libDaisy/src/hid/disp/graphics_common.h ****                 width_,
ARM GAS  /var/folders/f7/sjskzmt15v119_37bs_xt4r00000gn/T//cc3cAasR.s 			page 49


 176:../../../../libs/libDaisy/src/hid/disp/graphics_common.h ****                 height_};
 177:../../../../libs/libDaisy/src/hid/disp/graphics_common.h ****     }
 178:../../../../libs/libDaisy/src/hid/disp/graphics_common.h **** 
 179:../../../../libs/libDaisy/src/hid/disp/graphics_common.h ****     Rectangle RemoveFromLeft(int16_t pxToRemove)
 180:../../../../libs/libDaisy/src/hid/disp/graphics_common.h ****     {
 181:../../../../libs/libDaisy/src/hid/disp/graphics_common.h ****         const auto result = this->WithWidth(min(pxToRemove, width_));
 182:../../../../libs/libDaisy/src/hid/disp/graphics_common.h ****         x_ += min(pxToRemove, width_);
 183:../../../../libs/libDaisy/src/hid/disp/graphics_common.h ****         width_ = max(int16_t(width_ - pxToRemove), 0);
 184:../../../../libs/libDaisy/src/hid/disp/graphics_common.h ****         return result;
 185:../../../../libs/libDaisy/src/hid/disp/graphics_common.h ****     }
 186:../../../../libs/libDaisy/src/hid/disp/graphics_common.h **** 
 187:../../../../libs/libDaisy/src/hid/disp/graphics_common.h ****     Rectangle RemoveFromRight(int16_t pxToRemove)
 188:../../../../libs/libDaisy/src/hid/disp/graphics_common.h ****     {
 189:../../../../libs/libDaisy/src/hid/disp/graphics_common.h ****         const auto canRemove = min(pxToRemove, width_);
 190:../../../../libs/libDaisy/src/hid/disp/graphics_common.h ****         width_ -= canRemove;
 191:../../../../libs/libDaisy/src/hid/disp/graphics_common.h ****         return {int16_t(x_ + width_), y_, canRemove, height_};
 192:../../../../libs/libDaisy/src/hid/disp/graphics_common.h ****     }
 193:../../../../libs/libDaisy/src/hid/disp/graphics_common.h **** 
 194:../../../../libs/libDaisy/src/hid/disp/graphics_common.h ****     Rectangle RemoveFromTop(int16_t pxToRemove)
 195:../../../../libs/libDaisy/src/hid/disp/graphics_common.h ****     {
 196:../../../../libs/libDaisy/src/hid/disp/graphics_common.h ****         const auto result = this->WithHeight(min(pxToRemove, height_));
 197:../../../../libs/libDaisy/src/hid/disp/graphics_common.h ****         y_ += min(pxToRemove, height_);
 198:../../../../libs/libDaisy/src/hid/disp/graphics_common.h ****         height_ = max(height_ - pxToRemove, 0);
 199:../../../../libs/libDaisy/src/hid/disp/graphics_common.h ****         return result;
 200:../../../../libs/libDaisy/src/hid/disp/graphics_common.h ****     }
 201:../../../../libs/libDaisy/src/hid/disp/graphics_common.h **** 
 202:../../../../libs/libDaisy/src/hid/disp/graphics_common.h ****     Rectangle RemoveFromBottom(int16_t pxToRemove)
 203:../../../../libs/libDaisy/src/hid/disp/graphics_common.h ****     {
 204:../../../../libs/libDaisy/src/hid/disp/graphics_common.h ****         const auto canRemove = min(pxToRemove, height_);
 205:../../../../libs/libDaisy/src/hid/disp/graphics_common.h ****         height_ -= canRemove;
 206:../../../../libs/libDaisy/src/hid/disp/graphics_common.h ****         return {x_, int16_t(y_ + height_), width_, canRemove};
 207:../../../../libs/libDaisy/src/hid/disp/graphics_common.h ****     }
 208:../../../../libs/libDaisy/src/hid/disp/graphics_common.h **** 
 209:../../../../libs/libDaisy/src/hid/disp/graphics_common.h ****     Rectangle AlignedWithin(const Rectangle& other, Alignment alignment) const
 1240              		.loc 13 209 15
 1241              		.cfi_startproc
 1242              		@ args = 0, pretend = 0, frame = 16
 1243              		@ frame_needed = 1, uses_anonymous_args = 0
 1244 0000 F0B5     		push	{r4, r5, r6, r7, lr}
 1245              		.cfi_def_cfa_offset 20
 1246              		.cfi_offset 4, -20
 1247              		.cfi_offset 5, -16
 1248              		.cfi_offset 6, -12
 1249              		.cfi_offset 7, -8
 1250              		.cfi_offset 14, -4
 1251 0002 87B0     		sub	sp, sp, #28
 1252              		.cfi_def_cfa_offset 48
 1253 0004 02AF     		add	r7, sp, #8
 1254              		.cfi_def_cfa 7, 40
 1255 0006 F860     		str	r0, [r7, #12]
 1256 0008 B960     		str	r1, [r7, #8]
 1257 000a 7A60     		str	r2, [r7, #4]
 1258 000c 3B60     		str	r3, [r7]
 210:../../../../libs/libDaisy/src/hid/disp/graphics_common.h ****     {
 211:../../../../libs/libDaisy/src/hid/disp/graphics_common.h ****         switch(alignment)
 1259              		.loc 13 211 9
 1260 000e 3B68     		ldr	r3, [r7]
ARM GAS  /var/folders/f7/sjskzmt15v119_37bs_xt4r00000gn/T//cc3cAasR.s 			page 50


 1261 0010 082B     		cmp	r3, #8
 1262 0012 00F25381 		bhi	.L58
 1263 0016 01A2     		adr	r2, .L60
 1264 0018 52F823F0 		ldr	pc, [r2, r3, lsl #2]
 1265              		.p2align 2
 1266              	.L60:
 1267 001c 57020000 		.word	.L68+1
 1268 0020 41000000 		.word	.L67+1
 1269 0024 9B000000 		.word	.L66+1
 1270 0028 65000000 		.word	.L65+1
 1271 002c DF000000 		.word	.L64+1
 1272 0030 61010000 		.word	.L63+1
 1273 0034 17010000 		.word	.L62+1
 1274 0038 B9010000 		.word	.L61+1
 1275 003c FF010000 		.word	.L59+1
 1276              		.p2align 1
 1277              	.L67:
 212:../../../../libs/libDaisy/src/hid/disp/graphics_common.h ****         {
 213:../../../../libs/libDaisy/src/hid/disp/graphics_common.h ****             case Alignment::topLeft:
 214:../../../../libs/libDaisy/src/hid/disp/graphics_common.h ****                 return {other.x_, other.y_, width_, height_};
 1278              		.loc 13 214 31
 1279 0040 7B68     		ldr	r3, [r7, #4]
 1280 0042 B3F90010 		ldrsh	r1, [r3]
 1281              		.loc 13 214 41
 1282 0046 7B68     		ldr	r3, [r7, #4]
 1283 0048 B3F90220 		ldrsh	r2, [r3, #2]
 1284              		.loc 13 214 45
 1285 004c BB68     		ldr	r3, [r7, #8]
 1286 004e B3F90400 		ldrsh	r0, [r3, #4]
 1287              		.loc 13 214 53
 1288 0052 BB68     		ldr	r3, [r7, #8]
 1289 0054 B3F90630 		ldrsh	r3, [r3, #6]
 1290              		.loc 13 214 60
 1291 0058 0093     		str	r3, [sp]
 1292 005a 0346     		mov	r3, r0
 1293 005c F868     		ldr	r0, [r7, #12]
 1294 005e FFF7FEFF 		bl	_ZN5daisy9RectangleC1Essss
 1295 0062 2EE1     		b	.L69
 1296              	.L65:
 215:../../../../libs/libDaisy/src/hid/disp/graphics_common.h ****             case Alignment::topRight:
 216:../../../../libs/libDaisy/src/hid/disp/graphics_common.h ****                 return {int16_t(other.GetRight() - width_),
 1297              		.loc 13 216 47
 1298 0064 7868     		ldr	r0, [r7, #4]
 1299 0066 FFF7FEFF 		bl	_ZNK5daisy9Rectangle8GetRightEv
 1300 006a 0346     		mov	r3, r0
 1301              		.loc 13 216 47 is_stmt 0 discriminator 1
 1302 006c 9AB2     		uxth	r2, r3
 1303              		.loc 13 216 52 is_stmt 1 discriminator 1
 1304 006e BB68     		ldr	r3, [r7, #8]
 1305 0070 B3F90430 		ldrsh	r3, [r3, #4]
 1306 0074 9BB2     		uxth	r3, r3
 1307              		.loc 13 216 50 discriminator 1
 1308 0076 D31A     		subs	r3, r2, r3
 1309 0078 9BB2     		uxth	r3, r3
 217:../../../../libs/libDaisy/src/hid/disp/graphics_common.h ****                         other.y_,
 218:../../../../libs/libDaisy/src/hid/disp/graphics_common.h ****                         width_,
 219:../../../../libs/libDaisy/src/hid/disp/graphics_common.h ****                         height_};
ARM GAS  /var/folders/f7/sjskzmt15v119_37bs_xt4r00000gn/T//cc3cAasR.s 			page 51


 1310              		.loc 13 219 32
 1311 007a 19B2     		sxth	r1, r3
 217:../../../../libs/libDaisy/src/hid/disp/graphics_common.h ****                         other.y_,
 1312              		.loc 13 217 31
 1313 007c 7B68     		ldr	r3, [r7, #4]
 1314 007e B3F90220 		ldrsh	r2, [r3, #2]
 218:../../../../libs/libDaisy/src/hid/disp/graphics_common.h ****                         height_};
 1315              		.loc 13 218 25
 1316 0082 BB68     		ldr	r3, [r7, #8]
 1317 0084 B3F90400 		ldrsh	r0, [r3, #4]
 1318              		.loc 13 219 25
 1319 0088 BB68     		ldr	r3, [r7, #8]
 1320 008a B3F90630 		ldrsh	r3, [r3, #6]
 1321              		.loc 13 219 32
 1322 008e 0093     		str	r3, [sp]
 1323 0090 0346     		mov	r3, r0
 1324 0092 F868     		ldr	r0, [r7, #12]
 1325 0094 FFF7FEFF 		bl	_ZN5daisy9RectangleC1Essss
 1326 0098 13E1     		b	.L69
 1327              	.L66:
 220:../../../../libs/libDaisy/src/hid/disp/graphics_common.h ****             case Alignment::topCentered:
 221:../../../../libs/libDaisy/src/hid/disp/graphics_common.h ****                 return {int16_t(x_ + (other.GetCenterX() - GetCenterX())),
 1328              		.loc 13 221 33
 1329 009a BB68     		ldr	r3, [r7, #8]
 1330 009c B3F90030 		ldrsh	r3, [r3]
 1331 00a0 9CB2     		uxth	r4, r3
 1332              		.loc 13 221 55
 1333 00a2 7868     		ldr	r0, [r7, #4]
 1334 00a4 FFF7FEFF 		bl	_ZNK5daisy9Rectangle10GetCenterXEv
 1335 00a8 0346     		mov	r3, r0
 1336              		.loc 13 221 55 is_stmt 0 discriminator 1
 1337 00aa 9DB2     		uxth	r5, r3
 1338              		.loc 13 221 70 is_stmt 1 discriminator 1
 1339 00ac B868     		ldr	r0, [r7, #8]
 1340 00ae FFF7FEFF 		bl	_ZNK5daisy9Rectangle10GetCenterXEv
 1341 00b2 0346     		mov	r3, r0
 1342              		.loc 13 221 70 is_stmt 0 discriminator 2
 1343 00b4 9BB2     		uxth	r3, r3
 1344              		.loc 13 221 58 is_stmt 1 discriminator 2
 1345 00b6 EB1A     		subs	r3, r5, r3
 1346 00b8 9BB2     		uxth	r3, r3
 1347              		.loc 13 221 36 discriminator 2
 1348 00ba 2344     		add	r3, r3, r4
 1349 00bc 9BB2     		uxth	r3, r3
 222:../../../../libs/libDaisy/src/hid/disp/graphics_common.h ****                         other.y_,
 223:../../../../libs/libDaisy/src/hid/disp/graphics_common.h ****                         width_,
 224:../../../../libs/libDaisy/src/hid/disp/graphics_common.h ****                         height_};
 1350              		.loc 13 224 32
 1351 00be 19B2     		sxth	r1, r3
 222:../../../../libs/libDaisy/src/hid/disp/graphics_common.h ****                         other.y_,
 1352              		.loc 13 222 31
 1353 00c0 7B68     		ldr	r3, [r7, #4]
 1354 00c2 B3F90220 		ldrsh	r2, [r3, #2]
 223:../../../../libs/libDaisy/src/hid/disp/graphics_common.h ****                         height_};
 1355              		.loc 13 223 25
 1356 00c6 BB68     		ldr	r3, [r7, #8]
 1357 00c8 B3F90400 		ldrsh	r0, [r3, #4]
ARM GAS  /var/folders/f7/sjskzmt15v119_37bs_xt4r00000gn/T//cc3cAasR.s 			page 52


 1358              		.loc 13 224 25
 1359 00cc BB68     		ldr	r3, [r7, #8]
 1360 00ce B3F90630 		ldrsh	r3, [r3, #6]
 1361              		.loc 13 224 32
 1362 00d2 0093     		str	r3, [sp]
 1363 00d4 0346     		mov	r3, r0
 1364 00d6 F868     		ldr	r0, [r7, #12]
 1365 00d8 FFF7FEFF 		bl	_ZN5daisy9RectangleC1Essss
 1366 00dc F1E0     		b	.L69
 1367              	.L64:
 225:../../../../libs/libDaisy/src/hid/disp/graphics_common.h ****             case Alignment::bottomLeft:
 226:../../../../libs/libDaisy/src/hid/disp/graphics_common.h ****                 return {other.x_,
 1368              		.loc 13 226 31
 1369 00de 7B68     		ldr	r3, [r7, #4]
 1370 00e0 B3F90040 		ldrsh	r4, [r3]
 227:../../../../libs/libDaisy/src/hid/disp/graphics_common.h ****                         int16_t(other.GetBottom() - height_),
 1371              		.loc 13 227 48
 1372 00e4 7868     		ldr	r0, [r7, #4]
 1373 00e6 FFF7FEFF 		bl	_ZNK5daisy9Rectangle9GetBottomEv
 1374 00ea 0346     		mov	r3, r0
 1375              		.loc 13 227 48 is_stmt 0 discriminator 1
 1376 00ec 9AB2     		uxth	r2, r3
 1377              		.loc 13 227 53 is_stmt 1 discriminator 1
 1378 00ee BB68     		ldr	r3, [r7, #8]
 1379 00f0 B3F90630 		ldrsh	r3, [r3, #6]
 1380 00f4 9BB2     		uxth	r3, r3
 1381              		.loc 13 227 51 discriminator 1
 1382 00f6 D31A     		subs	r3, r2, r3
 1383 00f8 9BB2     		uxth	r3, r3
 228:../../../../libs/libDaisy/src/hid/disp/graphics_common.h ****                         width_,
 229:../../../../libs/libDaisy/src/hid/disp/graphics_common.h ****                         height_};
 1384              		.loc 13 229 32
 1385 00fa 1AB2     		sxth	r2, r3
 228:../../../../libs/libDaisy/src/hid/disp/graphics_common.h ****                         width_,
 1386              		.loc 13 228 25
 1387 00fc BB68     		ldr	r3, [r7, #8]
 1388 00fe B3F90410 		ldrsh	r1, [r3, #4]
 1389              		.loc 13 229 25
 1390 0102 BB68     		ldr	r3, [r7, #8]
 1391 0104 B3F90630 		ldrsh	r3, [r3, #6]
 1392              		.loc 13 229 32
 1393 0108 0093     		str	r3, [sp]
 1394 010a 0B46     		mov	r3, r1
 1395 010c 2146     		mov	r1, r4
 1396 010e F868     		ldr	r0, [r7, #12]
 1397 0110 FFF7FEFF 		bl	_ZN5daisy9RectangleC1Essss
 1398 0114 D5E0     		b	.L69
 1399              	.L62:
 230:../../../../libs/libDaisy/src/hid/disp/graphics_common.h ****             case Alignment::bottomRight:
 231:../../../../libs/libDaisy/src/hid/disp/graphics_common.h ****                 return {int16_t(other.GetRight() - width_),
 1400              		.loc 13 231 47
 1401 0116 7868     		ldr	r0, [r7, #4]
 1402 0118 FFF7FEFF 		bl	_ZNK5daisy9Rectangle8GetRightEv
 1403 011c 0346     		mov	r3, r0
 1404              		.loc 13 231 47 is_stmt 0 discriminator 1
 1405 011e 9AB2     		uxth	r2, r3
 1406              		.loc 13 231 52 is_stmt 1 discriminator 1
ARM GAS  /var/folders/f7/sjskzmt15v119_37bs_xt4r00000gn/T//cc3cAasR.s 			page 53


 1407 0120 BB68     		ldr	r3, [r7, #8]
 1408 0122 B3F90430 		ldrsh	r3, [r3, #4]
 1409 0126 9BB2     		uxth	r3, r3
 1410              		.loc 13 231 50 discriminator 1
 1411 0128 D31A     		subs	r3, r2, r3
 1412 012a 9BB2     		uxth	r3, r3
 232:../../../../libs/libDaisy/src/hid/disp/graphics_common.h ****                         int16_t(other.GetBottom() - height_),
 233:../../../../libs/libDaisy/src/hid/disp/graphics_common.h ****                         width_,
 234:../../../../libs/libDaisy/src/hid/disp/graphics_common.h ****                         height_};
 1413              		.loc 13 234 32
 1414 012c 1CB2     		sxth	r4, r3
 232:../../../../libs/libDaisy/src/hid/disp/graphics_common.h ****                         int16_t(other.GetBottom() - height_),
 1415              		.loc 13 232 48
 1416 012e 7868     		ldr	r0, [r7, #4]
 1417 0130 FFF7FEFF 		bl	_ZNK5daisy9Rectangle9GetBottomEv
 1418 0134 0346     		mov	r3, r0
 232:../../../../libs/libDaisy/src/hid/disp/graphics_common.h ****                         int16_t(other.GetBottom() - height_),
 1419              		.loc 13 232 48 is_stmt 0 discriminator 1
 1420 0136 9AB2     		uxth	r2, r3
 232:../../../../libs/libDaisy/src/hid/disp/graphics_common.h ****                         int16_t(other.GetBottom() - height_),
 1421              		.loc 13 232 53 is_stmt 1 discriminator 1
 1422 0138 BB68     		ldr	r3, [r7, #8]
 1423 013a B3F90630 		ldrsh	r3, [r3, #6]
 1424 013e 9BB2     		uxth	r3, r3
 232:../../../../libs/libDaisy/src/hid/disp/graphics_common.h ****                         int16_t(other.GetBottom() - height_),
 1425              		.loc 13 232 51 discriminator 1
 1426 0140 D31A     		subs	r3, r2, r3
 1427 0142 9BB2     		uxth	r3, r3
 1428              		.loc 13 234 32
 1429 0144 1AB2     		sxth	r2, r3
 233:../../../../libs/libDaisy/src/hid/disp/graphics_common.h ****                         height_};
 1430              		.loc 13 233 25
 1431 0146 BB68     		ldr	r3, [r7, #8]
 1432 0148 B3F90410 		ldrsh	r1, [r3, #4]
 1433              		.loc 13 234 25
 1434 014c BB68     		ldr	r3, [r7, #8]
 1435 014e B3F90630 		ldrsh	r3, [r3, #6]
 1436              		.loc 13 234 32
 1437 0152 0093     		str	r3, [sp]
 1438 0154 0B46     		mov	r3, r1
 1439 0156 2146     		mov	r1, r4
 1440 0158 F868     		ldr	r0, [r7, #12]
 1441 015a FFF7FEFF 		bl	_ZN5daisy9RectangleC1Essss
 1442 015e B0E0     		b	.L69
 1443              	.L63:
 235:../../../../libs/libDaisy/src/hid/disp/graphics_common.h ****             case Alignment::bottomCentered:
 236:../../../../libs/libDaisy/src/hid/disp/graphics_common.h ****                 return {int16_t(x_ + (other.GetCenterX() - GetCenterX())),
 1444              		.loc 13 236 33
 1445 0160 BB68     		ldr	r3, [r7, #8]
 1446 0162 B3F90030 		ldrsh	r3, [r3]
 1447 0166 9CB2     		uxth	r4, r3
 1448              		.loc 13 236 55
 1449 0168 7868     		ldr	r0, [r7, #4]
 1450 016a FFF7FEFF 		bl	_ZNK5daisy9Rectangle10GetCenterXEv
 1451 016e 0346     		mov	r3, r0
 1452              		.loc 13 236 55 is_stmt 0 discriminator 1
 1453 0170 9DB2     		uxth	r5, r3
ARM GAS  /var/folders/f7/sjskzmt15v119_37bs_xt4r00000gn/T//cc3cAasR.s 			page 54


 1454              		.loc 13 236 70 is_stmt 1 discriminator 1
 1455 0172 B868     		ldr	r0, [r7, #8]
 1456 0174 FFF7FEFF 		bl	_ZNK5daisy9Rectangle10GetCenterXEv
 1457 0178 0346     		mov	r3, r0
 1458              		.loc 13 236 70 is_stmt 0 discriminator 2
 1459 017a 9BB2     		uxth	r3, r3
 1460              		.loc 13 236 58 is_stmt 1 discriminator 2
 1461 017c EB1A     		subs	r3, r5, r3
 1462 017e 9BB2     		uxth	r3, r3
 1463              		.loc 13 236 36 discriminator 2
 1464 0180 2344     		add	r3, r3, r4
 1465 0182 9BB2     		uxth	r3, r3
 237:../../../../libs/libDaisy/src/hid/disp/graphics_common.h ****                         int16_t(other.GetBottom() - height_),
 238:../../../../libs/libDaisy/src/hid/disp/graphics_common.h ****                         width_,
 239:../../../../libs/libDaisy/src/hid/disp/graphics_common.h ****                         height_};
 1466              		.loc 13 239 32
 1467 0184 1CB2     		sxth	r4, r3
 237:../../../../libs/libDaisy/src/hid/disp/graphics_common.h ****                         int16_t(other.GetBottom() - height_),
 1468              		.loc 13 237 48
 1469 0186 7868     		ldr	r0, [r7, #4]
 1470 0188 FFF7FEFF 		bl	_ZNK5daisy9Rectangle9GetBottomEv
 1471 018c 0346     		mov	r3, r0
 237:../../../../libs/libDaisy/src/hid/disp/graphics_common.h ****                         int16_t(other.GetBottom() - height_),
 1472              		.loc 13 237 48 is_stmt 0 discriminator 1
 1473 018e 9AB2     		uxth	r2, r3
 237:../../../../libs/libDaisy/src/hid/disp/graphics_common.h ****                         int16_t(other.GetBottom() - height_),
 1474              		.loc 13 237 53 is_stmt 1 discriminator 1
 1475 0190 BB68     		ldr	r3, [r7, #8]
 1476 0192 B3F90630 		ldrsh	r3, [r3, #6]
 1477 0196 9BB2     		uxth	r3, r3
 237:../../../../libs/libDaisy/src/hid/disp/graphics_common.h ****                         int16_t(other.GetBottom() - height_),
 1478              		.loc 13 237 51 discriminator 1
 1479 0198 D31A     		subs	r3, r2, r3
 1480 019a 9BB2     		uxth	r3, r3
 1481              		.loc 13 239 32
 1482 019c 1AB2     		sxth	r2, r3
 238:../../../../libs/libDaisy/src/hid/disp/graphics_common.h ****                         height_};
 1483              		.loc 13 238 25
 1484 019e BB68     		ldr	r3, [r7, #8]
 1485 01a0 B3F90410 		ldrsh	r1, [r3, #4]
 1486              		.loc 13 239 25
 1487 01a4 BB68     		ldr	r3, [r7, #8]
 1488 01a6 B3F90630 		ldrsh	r3, [r3, #6]
 1489              		.loc 13 239 32
 1490 01aa 0093     		str	r3, [sp]
 1491 01ac 0B46     		mov	r3, r1
 1492 01ae 2146     		mov	r1, r4
 1493 01b0 F868     		ldr	r0, [r7, #12]
 1494 01b2 FFF7FEFF 		bl	_ZN5daisy9RectangleC1Essss
 1495 01b6 84E0     		b	.L69
 1496              	.L61:
 240:../../../../libs/libDaisy/src/hid/disp/graphics_common.h ****             case Alignment::centeredLeft:
 241:../../../../libs/libDaisy/src/hid/disp/graphics_common.h ****                 return {other.x_,
 1497              		.loc 13 241 31
 1498 01b8 7B68     		ldr	r3, [r7, #4]
 1499 01ba B3F90060 		ldrsh	r6, [r3]
 242:../../../../libs/libDaisy/src/hid/disp/graphics_common.h ****                         int16_t(y_ + (other.GetCenterY() - GetCenterY())),
ARM GAS  /var/folders/f7/sjskzmt15v119_37bs_xt4r00000gn/T//cc3cAasR.s 			page 55


 1500              		.loc 13 242 33
 1501 01be BB68     		ldr	r3, [r7, #8]
 1502 01c0 B3F90230 		ldrsh	r3, [r3, #2]
 1503 01c4 9CB2     		uxth	r4, r3
 1504              		.loc 13 242 55
 1505 01c6 7868     		ldr	r0, [r7, #4]
 1506 01c8 FFF7FEFF 		bl	_ZNK5daisy9Rectangle10GetCenterYEv
 1507 01cc 0346     		mov	r3, r0
 1508              		.loc 13 242 55 is_stmt 0 discriminator 1
 1509 01ce 9DB2     		uxth	r5, r3
 1510              		.loc 13 242 70 is_stmt 1 discriminator 1
 1511 01d0 B868     		ldr	r0, [r7, #8]
 1512 01d2 FFF7FEFF 		bl	_ZNK5daisy9Rectangle10GetCenterYEv
 1513 01d6 0346     		mov	r3, r0
 1514              		.loc 13 242 70 is_stmt 0 discriminator 2
 1515 01d8 9BB2     		uxth	r3, r3
 1516              		.loc 13 242 58 is_stmt 1 discriminator 2
 1517 01da EB1A     		subs	r3, r5, r3
 1518 01dc 9BB2     		uxth	r3, r3
 1519              		.loc 13 242 36 discriminator 2
 1520 01de 2344     		add	r3, r3, r4
 1521 01e0 9BB2     		uxth	r3, r3
 243:../../../../libs/libDaisy/src/hid/disp/graphics_common.h ****                         width_,
 244:../../../../libs/libDaisy/src/hid/disp/graphics_common.h ****                         height_};
 1522              		.loc 13 244 32
 1523 01e2 1AB2     		sxth	r2, r3
 243:../../../../libs/libDaisy/src/hid/disp/graphics_common.h ****                         width_,
 1524              		.loc 13 243 25
 1525 01e4 BB68     		ldr	r3, [r7, #8]
 1526 01e6 B3F90410 		ldrsh	r1, [r3, #4]
 1527              		.loc 13 244 25
 1528 01ea BB68     		ldr	r3, [r7, #8]
 1529 01ec B3F90630 		ldrsh	r3, [r3, #6]
 1530              		.loc 13 244 32
 1531 01f0 0093     		str	r3, [sp]
 1532 01f2 0B46     		mov	r3, r1
 1533 01f4 3146     		mov	r1, r6
 1534 01f6 F868     		ldr	r0, [r7, #12]
 1535 01f8 FFF7FEFF 		bl	_ZN5daisy9RectangleC1Essss
 1536 01fc 61E0     		b	.L69
 1537              	.L59:
 245:../../../../libs/libDaisy/src/hid/disp/graphics_common.h ****             case Alignment::centeredRight:
 246:../../../../libs/libDaisy/src/hid/disp/graphics_common.h ****                 return {int16_t(other.GetRight() - width_),
 1538              		.loc 13 246 47
 1539 01fe 7868     		ldr	r0, [r7, #4]
 1540 0200 FFF7FEFF 		bl	_ZNK5daisy9Rectangle8GetRightEv
 1541 0204 0346     		mov	r3, r0
 1542              		.loc 13 246 47 is_stmt 0 discriminator 1
 1543 0206 9AB2     		uxth	r2, r3
 1544              		.loc 13 246 52 is_stmt 1 discriminator 1
 1545 0208 BB68     		ldr	r3, [r7, #8]
 1546 020a B3F90430 		ldrsh	r3, [r3, #4]
 1547 020e 9BB2     		uxth	r3, r3
 1548              		.loc 13 246 50 discriminator 1
 1549 0210 D31A     		subs	r3, r2, r3
 1550 0212 9BB2     		uxth	r3, r3
 247:../../../../libs/libDaisy/src/hid/disp/graphics_common.h ****                         int16_t(y_ + (other.GetCenterY() - GetCenterY())),
ARM GAS  /var/folders/f7/sjskzmt15v119_37bs_xt4r00000gn/T//cc3cAasR.s 			page 56


 248:../../../../libs/libDaisy/src/hid/disp/graphics_common.h ****                         width_,
 249:../../../../libs/libDaisy/src/hid/disp/graphics_common.h ****                         height_};
 1551              		.loc 13 249 32
 1552 0214 1EB2     		sxth	r6, r3
 247:../../../../libs/libDaisy/src/hid/disp/graphics_common.h ****                         int16_t(y_ + (other.GetCenterY() - GetCenterY())),
 1553              		.loc 13 247 33
 1554 0216 BB68     		ldr	r3, [r7, #8]
 1555 0218 B3F90230 		ldrsh	r3, [r3, #2]
 1556 021c 9CB2     		uxth	r4, r3
 247:../../../../libs/libDaisy/src/hid/disp/graphics_common.h ****                         int16_t(y_ + (other.GetCenterY() - GetCenterY())),
 1557              		.loc 13 247 55
 1558 021e 7868     		ldr	r0, [r7, #4]
 1559 0220 FFF7FEFF 		bl	_ZNK5daisy9Rectangle10GetCenterYEv
 1560 0224 0346     		mov	r3, r0
 247:../../../../libs/libDaisy/src/hid/disp/graphics_common.h ****                         int16_t(y_ + (other.GetCenterY() - GetCenterY())),
 1561              		.loc 13 247 55 is_stmt 0 discriminator 1
 1562 0226 9DB2     		uxth	r5, r3
 247:../../../../libs/libDaisy/src/hid/disp/graphics_common.h ****                         int16_t(y_ + (other.GetCenterY() - GetCenterY())),
 1563              		.loc 13 247 70 is_stmt 1 discriminator 1
 1564 0228 B868     		ldr	r0, [r7, #8]
 1565 022a FFF7FEFF 		bl	_ZNK5daisy9Rectangle10GetCenterYEv
 1566 022e 0346     		mov	r3, r0
 247:../../../../libs/libDaisy/src/hid/disp/graphics_common.h ****                         int16_t(y_ + (other.GetCenterY() - GetCenterY())),
 1567              		.loc 13 247 70 is_stmt 0 discriminator 2
 1568 0230 9BB2     		uxth	r3, r3
 247:../../../../libs/libDaisy/src/hid/disp/graphics_common.h ****                         int16_t(y_ + (other.GetCenterY() - GetCenterY())),
 1569              		.loc 13 247 58 is_stmt 1 discriminator 2
 1570 0232 EB1A     		subs	r3, r5, r3
 1571 0234 9BB2     		uxth	r3, r3
 247:../../../../libs/libDaisy/src/hid/disp/graphics_common.h ****                         int16_t(y_ + (other.GetCenterY() - GetCenterY())),
 1572              		.loc 13 247 36 discriminator 2
 1573 0236 2344     		add	r3, r3, r4
 1574 0238 9BB2     		uxth	r3, r3
 1575              		.loc 13 249 32
 1576 023a 1AB2     		sxth	r2, r3
 248:../../../../libs/libDaisy/src/hid/disp/graphics_common.h ****                         height_};
 1577              		.loc 13 248 25
 1578 023c BB68     		ldr	r3, [r7, #8]
 1579 023e B3F90410 		ldrsh	r1, [r3, #4]
 1580              		.loc 13 249 25
 1581 0242 BB68     		ldr	r3, [r7, #8]
 1582 0244 B3F90630 		ldrsh	r3, [r3, #6]
 1583              		.loc 13 249 32
 1584 0248 0093     		str	r3, [sp]
 1585 024a 0B46     		mov	r3, r1
 1586 024c 3146     		mov	r1, r6
 1587 024e F868     		ldr	r0, [r7, #12]
 1588 0250 FFF7FEFF 		bl	_ZN5daisy9RectangleC1Essss
 1589 0254 35E0     		b	.L69
 1590              	.L68:
 250:../../../../libs/libDaisy/src/hid/disp/graphics_common.h ****             case Alignment::centered:
 251:../../../../libs/libDaisy/src/hid/disp/graphics_common.h ****                 return {int16_t(x_ + (other.GetCenterX() - GetCenterX())),
 1591              		.loc 13 251 33
 1592 0256 BB68     		ldr	r3, [r7, #8]
 1593 0258 B3F90030 		ldrsh	r3, [r3]
 1594 025c 9CB2     		uxth	r4, r3
 1595              		.loc 13 251 55
ARM GAS  /var/folders/f7/sjskzmt15v119_37bs_xt4r00000gn/T//cc3cAasR.s 			page 57


 1596 025e 7868     		ldr	r0, [r7, #4]
 1597 0260 FFF7FEFF 		bl	_ZNK5daisy9Rectangle10GetCenterXEv
 1598 0264 0346     		mov	r3, r0
 1599              		.loc 13 251 55 is_stmt 0 discriminator 1
 1600 0266 9DB2     		uxth	r5, r3
 1601              		.loc 13 251 70 is_stmt 1 discriminator 1
 1602 0268 B868     		ldr	r0, [r7, #8]
 1603 026a FFF7FEFF 		bl	_ZNK5daisy9Rectangle10GetCenterXEv
 1604 026e 0346     		mov	r3, r0
 1605              		.loc 13 251 70 is_stmt 0 discriminator 2
 1606 0270 9BB2     		uxth	r3, r3
 1607              		.loc 13 251 58 is_stmt 1 discriminator 2
 1608 0272 EB1A     		subs	r3, r5, r3
 1609 0274 9BB2     		uxth	r3, r3
 1610              		.loc 13 251 36 discriminator 2
 1611 0276 2344     		add	r3, r3, r4
 1612 0278 9BB2     		uxth	r3, r3
 252:../../../../libs/libDaisy/src/hid/disp/graphics_common.h ****                         int16_t(y_ + (other.GetCenterY() - GetCenterY())),
 253:../../../../libs/libDaisy/src/hid/disp/graphics_common.h ****                         width_,
 254:../../../../libs/libDaisy/src/hid/disp/graphics_common.h ****                         height_};
 1613              		.loc 13 254 32
 1614 027a 1EB2     		sxth	r6, r3
 252:../../../../libs/libDaisy/src/hid/disp/graphics_common.h ****                         int16_t(y_ + (other.GetCenterY() - GetCenterY())),
 1615              		.loc 13 252 33
 1616 027c BB68     		ldr	r3, [r7, #8]
 1617 027e B3F90230 		ldrsh	r3, [r3, #2]
 1618 0282 9CB2     		uxth	r4, r3
 252:../../../../libs/libDaisy/src/hid/disp/graphics_common.h ****                         int16_t(y_ + (other.GetCenterY() - GetCenterY())),
 1619              		.loc 13 252 55
 1620 0284 7868     		ldr	r0, [r7, #4]
 1621 0286 FFF7FEFF 		bl	_ZNK5daisy9Rectangle10GetCenterYEv
 1622 028a 0346     		mov	r3, r0
 252:../../../../libs/libDaisy/src/hid/disp/graphics_common.h ****                         int16_t(y_ + (other.GetCenterY() - GetCenterY())),
 1623              		.loc 13 252 55 is_stmt 0 discriminator 1
 1624 028c 9DB2     		uxth	r5, r3
 252:../../../../libs/libDaisy/src/hid/disp/graphics_common.h ****                         int16_t(y_ + (other.GetCenterY() - GetCenterY())),
 1625              		.loc 13 252 70 is_stmt 1 discriminator 1
 1626 028e B868     		ldr	r0, [r7, #8]
 1627 0290 FFF7FEFF 		bl	_ZNK5daisy9Rectangle10GetCenterYEv
 1628 0294 0346     		mov	r3, r0
 252:../../../../libs/libDaisy/src/hid/disp/graphics_common.h ****                         int16_t(y_ + (other.GetCenterY() - GetCenterY())),
 1629              		.loc 13 252 70 is_stmt 0 discriminator 2
 1630 0296 9BB2     		uxth	r3, r3
 252:../../../../libs/libDaisy/src/hid/disp/graphics_common.h ****                         int16_t(y_ + (other.GetCenterY() - GetCenterY())),
 1631              		.loc 13 252 58 is_stmt 1 discriminator 2
 1632 0298 EB1A     		subs	r3, r5, r3
 1633 029a 9BB2     		uxth	r3, r3
 252:../../../../libs/libDaisy/src/hid/disp/graphics_common.h ****                         int16_t(y_ + (other.GetCenterY() - GetCenterY())),
 1634              		.loc 13 252 36 discriminator 2
 1635 029c 2344     		add	r3, r3, r4
 1636 029e 9BB2     		uxth	r3, r3
 1637              		.loc 13 254 32
 1638 02a0 1AB2     		sxth	r2, r3
 253:../../../../libs/libDaisy/src/hid/disp/graphics_common.h ****                         height_};
 1639              		.loc 13 253 25
 1640 02a2 BB68     		ldr	r3, [r7, #8]
 1641 02a4 B3F90410 		ldrsh	r1, [r3, #4]
ARM GAS  /var/folders/f7/sjskzmt15v119_37bs_xt4r00000gn/T//cc3cAasR.s 			page 58


 1642              		.loc 13 254 25
 1643 02a8 BB68     		ldr	r3, [r7, #8]
 1644 02aa B3F90630 		ldrsh	r3, [r3, #6]
 1645              		.loc 13 254 32
 1646 02ae 0093     		str	r3, [sp]
 1647 02b0 0B46     		mov	r3, r1
 1648 02b2 3146     		mov	r1, r6
 1649 02b4 F868     		ldr	r0, [r7, #12]
 1650 02b6 FFF7FEFF 		bl	_ZN5daisy9RectangleC1Essss
 1651 02ba 02E0     		b	.L69
 1652              	.L58:
 255:../../../../libs/libDaisy/src/hid/disp/graphics_common.h ****             default: return {};
 1653              		.loc 13 255 30
 1654 02bc F868     		ldr	r0, [r7, #12]
 1655 02be FFF7FEFF 		bl	_ZN5daisy9RectangleC1Ev
 1656              	.L69:
 256:../../../../libs/libDaisy/src/hid/disp/graphics_common.h ****         }
 257:../../../../libs/libDaisy/src/hid/disp/graphics_common.h ****     }
 1657              		.loc 13 257 5
 1658 02c2 F868     		ldr	r0, [r7, #12]
 1659 02c4 1437     		adds	r7, r7, #20
 1660              		.cfi_def_cfa_offset 20
 1661 02c6 BD46     		mov	sp, r7
 1662              		.cfi_def_cfa_register 13
 1663              		@ sp needed
 1664 02c8 F0BD     		pop	{r4, r5, r6, r7, pc}
 1665              		.cfi_endproc
 1666              	.LFE1947:
 1668 02ca 00BF     		.section	.text._ZN5daisy9Rectangle3maxEss,"axG",%progbits,_ZN5daisy9Rectangle3maxEss,comdat
 1669              		.align	1
 1670              		.weak	_ZN5daisy9Rectangle3maxEss
 1671              		.syntax unified
 1672              		.thumb
 1673              		.thumb_func
 1675              	_ZN5daisy9Rectangle3maxEss:
 1676              	.LFB1948:
 258:../../../../libs/libDaisy/src/hid/disp/graphics_common.h **** 
 259:../../../../libs/libDaisy/src/hid/disp/graphics_common.h ****   private:
 260:../../../../libs/libDaisy/src/hid/disp/graphics_common.h ****     int16_t x_, y_, width_, height_;
 261:../../../../libs/libDaisy/src/hid/disp/graphics_common.h ****     int16_t max(int16_t a, int16_t b) { return (a > b) ? a : b; }
 1677              		.loc 13 261 13
 1678              		.cfi_startproc
 1679              		@ args = 0, pretend = 0, frame = 8
 1680              		@ frame_needed = 1, uses_anonymous_args = 0
 1681              		@ link register save eliminated.
 1682 0000 80B4     		push	{r7}
 1683              		.cfi_def_cfa_offset 4
 1684              		.cfi_offset 7, -4
 1685 0002 83B0     		sub	sp, sp, #12
 1686              		.cfi_def_cfa_offset 16
 1687 0004 00AF     		add	r7, sp, #0
 1688              		.cfi_def_cfa_register 7
 1689 0006 7860     		str	r0, [r7, #4]
 1690 0008 0B46     		mov	r3, r1
 1691 000a 7B80     		strh	r3, [r7, #2]	@ movhi
 1692 000c 1346     		mov	r3, r2	@ movhi
 1693 000e 3B80     		strh	r3, [r7]	@ movhi
ARM GAS  /var/folders/f7/sjskzmt15v119_37bs_xt4r00000gn/T//cc3cAasR.s 			page 59


 1694              		.loc 13 261 56
 1695 0010 B7F90220 		ldrsh	r2, [r7, #2]
 1696 0014 B7F90030 		ldrsh	r3, [r7]
 1697 0018 9A42     		cmp	r2, r3
 1698 001a 02DD     		ble	.L71
 1699              		.loc 13 261 56 is_stmt 0 discriminator 1
 1700 001c B7F90230 		ldrsh	r3, [r7, #2]
 1701 0020 01E0     		b	.L72
 1702              	.L71:
 1703              		.loc 13 261 56 discriminator 2
 1704 0022 B7F90030 		ldrsh	r3, [r7]
 1705              	.L72:
 1706              		.loc 13 261 65 is_stmt 1
 1707 0026 1846     		mov	r0, r3
 1708 0028 0C37     		adds	r7, r7, #12
 1709              		.cfi_def_cfa_offset 4
 1710 002a BD46     		mov	sp, r7
 1711              		.cfi_def_cfa_register 13
 1712              		@ sp needed
 1713 002c 5DF8047B 		ldr	r7, [sp], #4
 1714              		.cfi_restore 7
 1715              		.cfi_def_cfa_offset 0
 1716 0030 7047     		bx	lr
 1717              		.cfi_endproc
 1718              	.LFE1948:
 1720              		.section	.text._ZN5daisy21OneBitGraphicsDisplayC2Ev,"axG",%progbits,_ZN5daisy21OneBitGraphicsDispl
 1721              		.align	1
 1722              		.weak	_ZN5daisy21OneBitGraphicsDisplayC2Ev
 1723              		.syntax unified
 1724              		.thumb
 1725              		.thumb_func
 1727              	_ZN5daisy21OneBitGraphicsDisplayC2Ev:
 1728              	.LFB1951:
 1729              		.file 14 "../../../../libs/libDaisy/src/hid/disp/display.h"
   1:../../../../libs/libDaisy/src/hid/disp/display.h **** #pragma once
   2:../../../../libs/libDaisy/src/hid/disp/display.h **** #ifndef DSY_DISPLAY_H
   3:../../../../libs/libDaisy/src/hid/disp/display.h **** #define DSY_DISPLAY_H /**< Macro */
   4:../../../../libs/libDaisy/src/hid/disp/display.h **** #include <cmath>
   5:../../../../libs/libDaisy/src/hid/disp/display.h **** #include "util/oled_fonts.h"
   6:../../../../libs/libDaisy/src/hid/disp/display.h **** #include "daisy_core.h"
   7:../../../../libs/libDaisy/src/hid/disp/display.h **** #include "graphics_common.h"
   8:../../../../libs/libDaisy/src/hid/disp/display.h **** 
   9:../../../../libs/libDaisy/src/hid/disp/display.h **** #ifndef deg2rad
  10:../../../../libs/libDaisy/src/hid/disp/display.h **** #define deg2rad(deg) ((deg)*3.141592 / 180.0)
  11:../../../../libs/libDaisy/src/hid/disp/display.h **** #endif
  12:../../../../libs/libDaisy/src/hid/disp/display.h **** 
  13:../../../../libs/libDaisy/src/hid/disp/display.h **** namespace daisy
  14:../../../../libs/libDaisy/src/hid/disp/display.h **** {
  15:../../../../libs/libDaisy/src/hid/disp/display.h **** /** 
  16:../../../../libs/libDaisy/src/hid/disp/display.h ****  * This interface is used as a base class for all types of 1bit-per-pixel
  17:../../../../libs/libDaisy/src/hid/disp/display.h ****  * graphics displays.
  18:../../../../libs/libDaisy/src/hid/disp/display.h **** */
  19:../../../../libs/libDaisy/src/hid/disp/display.h **** class OneBitGraphicsDisplay
  20:../../../../libs/libDaisy/src/hid/disp/display.h **** {
  21:../../../../libs/libDaisy/src/hid/disp/display.h ****   public:
  22:../../../../libs/libDaisy/src/hid/disp/display.h ****     OneBitGraphicsDisplay() {}
 1730              		.loc 14 22 5
ARM GAS  /var/folders/f7/sjskzmt15v119_37bs_xt4r00000gn/T//cc3cAasR.s 			page 60


 1731              		.cfi_startproc
 1732              		@ args = 0, pretend = 0, frame = 8
 1733              		@ frame_needed = 1, uses_anonymous_args = 0
 1734              		@ link register save eliminated.
 1735 0000 80B4     		push	{r7}
 1736              		.cfi_def_cfa_offset 4
 1737              		.cfi_offset 7, -4
 1738 0002 83B0     		sub	sp, sp, #12
 1739              		.cfi_def_cfa_offset 16
 1740 0004 00AF     		add	r7, sp, #0
 1741              		.cfi_def_cfa_register 7
 1742 0006 7860     		str	r0, [r7, #4]
 1743              	.LBB306:
 1744              		.loc 14 22 29
 1745 0008 044A     		ldr	r2, .L76
 1746 000a 7B68     		ldr	r3, [r7, #4]
 1747 000c 1A60     		str	r2, [r3]
 1748              	.LBE306:
 1749              		.loc 14 22 30
 1750 000e 7B68     		ldr	r3, [r7, #4]
 1751 0010 1846     		mov	r0, r3
 1752 0012 0C37     		adds	r7, r7, #12
 1753              		.cfi_def_cfa_offset 4
 1754 0014 BD46     		mov	sp, r7
 1755              		.cfi_def_cfa_register 13
 1756              		@ sp needed
 1757 0016 5DF8047B 		ldr	r7, [sp], #4
 1758              		.cfi_restore 7
 1759              		.cfi_def_cfa_offset 0
 1760 001a 7047     		bx	lr
 1761              	.L77:
 1762              		.align	2
 1763              	.L76:
 1764 001c 08000000 		.word	_ZTVN5daisy21OneBitGraphicsDisplayE+8
 1765              		.cfi_endproc
 1766              	.LFE1951:
 1768              		.weak	_ZN5daisy21OneBitGraphicsDisplayC1Ev
 1769              		.thumb_set _ZN5daisy21OneBitGraphicsDisplayC1Ev,_ZN5daisy21OneBitGraphicsDisplayC2Ev
 1770              		.section	.text._ZN5daisy21OneBitGraphicsDisplayD2Ev,"axG",%progbits,_ZN5daisy21OneBitGraphicsDispl
 1771              		.align	1
 1772              		.weak	_ZN5daisy21OneBitGraphicsDisplayD2Ev
 1773              		.syntax unified
 1774              		.thumb
 1775              		.thumb_func
 1777              	_ZN5daisy21OneBitGraphicsDisplayD2Ev:
 1778              	.LFB1954:
